ARM GAS  C:\Users\teju\AppData\Local\Temp\cc6dVdYf.s 			page 1


   1              		.syntax unified
   2              		.cpu cortex-m3
   3              		.fpu softvfp
   4              		.eabi_attribute 20, 1
   5              		.eabi_attribute 21, 1
   6              		.eabi_attribute 23, 3
   7              		.eabi_attribute 24, 1
   8              		.eabi_attribute 25, 1
   9              		.eabi_attribute 26, 1
  10              		.eabi_attribute 30, 1
  11              		.eabi_attribute 34, 1
  12              		.eabi_attribute 18, 4
  13              		.thumb
  14              		.syntax unified
  15              		.file	"main.c"
  16              		.text
  17              	.Ltext0:
  18              		.cfi_sections	.debug_frame
  19              		.section	.text.left_eyebrow_lift,"ax",%progbits
  20              		.align	2
  21              		.global	left_eyebrow_lift
  22              		.thumb
  23              		.thumb_func
  24              		.type	left_eyebrow_lift, %function
  25              	left_eyebrow_lift:
  26              	.LFB64:
  27              		.file 1 "main.c"
   1:main.c        **** #include<stdio.h>
   2:main.c        **** /* ========================================
   3:main.c        ****  *
   4:main.c        ****  * Copyright YOUR COMPANY, THE YEAR
   5:main.c        ****  * All Rights Reserved
   6:main.c        ****  * UNPUBLISHED, LICENSED SOFTWARE.
   7:main.c        ****  *
   8:main.c        ****  * CONFIDENTIAL AND PROPRIETARY INFORMATION
   9:main.c        ****  * WHICH IS THE PROPERTY OF your company.
  10:main.c        ****  *
  11:main.c        **** **********************************************************
  12:main.c        **** Mapping Relationship
  13:main.c        **** 
  14:main.c        **** Right Eyebrow Inner ---- S1 ---- Right_Eyebrow_WriteCompare1
  15:main.c        **** Right Eyebrow Outer ---- S3 ---- Right_Eyebrow_WriteCompare2
  16:main.c        **** Left Eyebrow Inner ----- S2 ---- Left_Eyebrow_WriteCompare1
  17:main.c        **** Left Eyebrow Outer ----- S4 ---- Left_Eyebrow_WriteCompare2
  18:main.c        **** Right Eyeball H(inner)-- S5 ---- EyeballVertical_WriteCompare1
  19:main.c        **** Right Eyeball V(outer)-- S7 ---- EyeballVertical_WriteCompare1
  20:main.c        **** Left Eyeball H(inner) -- S6 ---- EyeballVertical_WriteCompare2
  21:main.c        **** Left Eyeball V(outer) -- S8 ---- EyeballVertical_WriteCompare2
  22:main.c        **** Eyelid V    ------------ S9 ---- Eyelid_WriteCompare1
  23:main.c        **** Eyelid Open/Close ------ S10 --- Eyelid_WriteCompare2 
  24:main.c        **** Jaw -------------------- S11 --- BaseAndJaw_WriteCompare1
  25:main.c        **** Right Lip -------------- S12 --- Lips_WriteCompare1
  26:main.c        **** Left Lip --------------- S13 --- Lips_WriteCompare2
  27:main.c        **** Right Neck ------------- S14 --- Neck_WriteCompare1
  28:main.c        **** Left Neck -------------- S15 --- Neck_WriteCompare2
  29:main.c        **** Base ------------------- S16 --- BaseAndJaw_WriteCompare2
  30:main.c        **** 
ARM GAS  C:\Users\teju\AppData\Local\Temp\cc6dVdYf.s 			page 2


  31:main.c        **** **********************************************************/
  32:main.c        **** 
  33:main.c        **** #include "project.h"
  34:main.c        **** void left_eyebrow_lift(){
  28              		.loc 1 34 0
  29              		.cfi_startproc
  30              		@ args = 0, pretend = 0, frame = 0
  31              		@ frame_needed = 0, uses_anonymous_args = 0
  32 0000 08B5     		push	{r3, lr}
  33              		.cfi_def_cfa_offset 8
  34              		.cfi_offset 3, -8
  35              		.cfi_offset 14, -4
  35:main.c        ****      Left_Eyebrow_WriteCompare1(5000); // Inner 
  36              		.loc 1 35 0
  37 0002 41F28830 		movw	r0, #5000
  38 0006 FFF7FEFF 		bl	Left_Eyebrow_WriteCompare1
  39              	.LVL0:
  36:main.c        ****      Left_Eyebrow_WriteCompare2(3000);  // Outer
  40              		.loc 1 36 0
  41 000a 40F6B830 		movw	r0, #3000
  42 000e FFF7FEFF 		bl	Left_Eyebrow_WriteCompare2
  43              	.LVL1:
  44 0012 08BD     		pop	{r3, pc}
  45              		.cfi_endproc
  46              	.LFE64:
  47              		.size	left_eyebrow_lift, .-left_eyebrow_lift
  48              		.section	.text.right_eyebrow_lift,"ax",%progbits
  49              		.align	2
  50              		.global	right_eyebrow_lift
  51              		.thumb
  52              		.thumb_func
  53              		.type	right_eyebrow_lift, %function
  54              	right_eyebrow_lift:
  55              	.LFB65:
  37:main.c        **** }
  38:main.c        **** void right_eyebrow_lift(){
  56              		.loc 1 38 0
  57              		.cfi_startproc
  58              		@ args = 0, pretend = 0, frame = 0
  59              		@ frame_needed = 0, uses_anonymous_args = 0
  60 0000 08B5     		push	{r3, lr}
  61              		.cfi_def_cfa_offset 8
  62              		.cfi_offset 3, -8
  63              		.cfi_offset 14, -4
  39:main.c        ****      Right_Eyebrow_WriteCompare1(3000);  // Inner 
  64              		.loc 1 39 0
  65 0002 40F6B830 		movw	r0, #3000
  66 0006 FFF7FEFF 		bl	Right_Eyebrow_WriteCompare1
  67              	.LVL2:
  40:main.c        ****      Right_Eyebrow_WriteCompare2(5000);   // Outer
  68              		.loc 1 40 0
  69 000a 41F28830 		movw	r0, #5000
  70 000e FFF7FEFF 		bl	Right_Eyebrow_WriteCompare2
  71              	.LVL3:
  72 0012 08BD     		pop	{r3, pc}
  73              		.cfi_endproc
  74              	.LFE65:
ARM GAS  C:\Users\teju\AppData\Local\Temp\cc6dVdYf.s 			page 3


  75              		.size	right_eyebrow_lift, .-right_eyebrow_lift
  76              		.section	.text.left_eyebrow_down,"ax",%progbits
  77              		.align	2
  78              		.global	left_eyebrow_down
  79              		.thumb
  80              		.thumb_func
  81              		.type	left_eyebrow_down, %function
  82              	left_eyebrow_down:
  83              	.LFB66:
  41:main.c        **** }
  42:main.c        **** void left_eyebrow_down(){
  84              		.loc 1 42 0
  85              		.cfi_startproc
  86              		@ args = 0, pretend = 0, frame = 0
  87              		@ frame_needed = 0, uses_anonymous_args = 0
  88 0000 08B5     		push	{r3, lr}
  89              		.cfi_def_cfa_offset 8
  90              		.cfi_offset 3, -8
  91              		.cfi_offset 14, -4
  43:main.c        ****      Left_Eyebrow_WriteCompare1(3000);
  92              		.loc 1 43 0
  93 0002 40F6B830 		movw	r0, #3000
  94 0006 FFF7FEFF 		bl	Left_Eyebrow_WriteCompare1
  95              	.LVL4:
  44:main.c        ****      Left_Eyebrow_WriteCompare2(5000);
  96              		.loc 1 44 0
  97 000a 41F28830 		movw	r0, #5000
  98 000e FFF7FEFF 		bl	Left_Eyebrow_WriteCompare2
  99              	.LVL5:
 100 0012 08BD     		pop	{r3, pc}
 101              		.cfi_endproc
 102              	.LFE66:
 103              		.size	left_eyebrow_down, .-left_eyebrow_down
 104              		.section	.text.right_eyebrow_down,"ax",%progbits
 105              		.align	2
 106              		.global	right_eyebrow_down
 107              		.thumb
 108              		.thumb_func
 109              		.type	right_eyebrow_down, %function
 110              	right_eyebrow_down:
 111              	.LFB67:
  45:main.c        **** }
  46:main.c        **** void right_eyebrow_down(){
 112              		.loc 1 46 0
 113              		.cfi_startproc
 114              		@ args = 0, pretend = 0, frame = 0
 115              		@ frame_needed = 0, uses_anonymous_args = 0
 116 0000 08B5     		push	{r3, lr}
 117              		.cfi_def_cfa_offset 8
 118              		.cfi_offset 3, -8
 119              		.cfi_offset 14, -4
  47:main.c        ****      Right_Eyebrow_WriteCompare1(5000);
 120              		.loc 1 47 0
 121 0002 41F28830 		movw	r0, #5000
 122 0006 FFF7FEFF 		bl	Right_Eyebrow_WriteCompare1
 123              	.LVL6:
  48:main.c        ****      Right_Eyebrow_WriteCompare2(3000);
ARM GAS  C:\Users\teju\AppData\Local\Temp\cc6dVdYf.s 			page 4


 124              		.loc 1 48 0
 125 000a 40F6B830 		movw	r0, #3000
 126 000e FFF7FEFF 		bl	Right_Eyebrow_WriteCompare2
 127              	.LVL7:
 128 0012 08BD     		pop	{r3, pc}
 129              		.cfi_endproc
 130              	.LFE67:
 131              		.size	right_eyebrow_down, .-right_eyebrow_down
 132              		.section	.text.reset_left,"ax",%progbits
 133              		.align	2
 134              		.global	reset_left
 135              		.thumb
 136              		.thumb_func
 137              		.type	reset_left, %function
 138              	reset_left:
 139              	.LFB68:
  49:main.c        **** }
  50:main.c        **** void reset_left(){
 140              		.loc 1 50 0
 141              		.cfi_startproc
 142              		@ args = 0, pretend = 0, frame = 0
 143              		@ frame_needed = 0, uses_anonymous_args = 0
 144 0000 08B5     		push	{r3, lr}
 145              		.cfi_def_cfa_offset 8
 146              		.cfi_offset 3, -8
 147              		.cfi_offset 14, -4
  51:main.c        ****      Left_Eyebrow_WriteCompare1(2000);
 148              		.loc 1 51 0
 149 0002 4FF4FA60 		mov	r0, #2000
 150 0006 FFF7FEFF 		bl	Left_Eyebrow_WriteCompare1
 151              	.LVL8:
  52:main.c        ****      Left_Eyebrow_WriteCompare2(2000);
 152              		.loc 1 52 0
 153 000a 4FF4FA60 		mov	r0, #2000
 154 000e FFF7FEFF 		bl	Left_Eyebrow_WriteCompare2
 155              	.LVL9:
 156 0012 08BD     		pop	{r3, pc}
 157              		.cfi_endproc
 158              	.LFE68:
 159              		.size	reset_left, .-reset_left
 160              		.section	.text.reset_right,"ax",%progbits
 161              		.align	2
 162              		.global	reset_right
 163              		.thumb
 164              		.thumb_func
 165              		.type	reset_right, %function
 166              	reset_right:
 167              	.LFB69:
  53:main.c        **** }
  54:main.c        **** void reset_right(){
 168              		.loc 1 54 0
 169              		.cfi_startproc
 170              		@ args = 0, pretend = 0, frame = 0
 171              		@ frame_needed = 0, uses_anonymous_args = 0
 172 0000 08B5     		push	{r3, lr}
 173              		.cfi_def_cfa_offset 8
 174              		.cfi_offset 3, -8
ARM GAS  C:\Users\teju\AppData\Local\Temp\cc6dVdYf.s 			page 5


 175              		.cfi_offset 14, -4
  55:main.c        ****      Right_Eyebrow_WriteCompare1(2000);
 176              		.loc 1 55 0
 177 0002 4FF4FA60 		mov	r0, #2000
 178 0006 FFF7FEFF 		bl	Right_Eyebrow_WriteCompare1
 179              	.LVL10:
  56:main.c        ****      Right_Eyebrow_WriteCompare2(2000);
 180              		.loc 1 56 0
 181 000a 4FF4FA60 		mov	r0, #2000
 182 000e FFF7FEFF 		bl	Right_Eyebrow_WriteCompare2
 183              	.LVL11:
 184 0012 08BD     		pop	{r3, pc}
 185              		.cfi_endproc
 186              	.LFE69:
 187              		.size	reset_right, .-reset_right
 188              		.section	.text.eyebrow_init,"ax",%progbits
 189              		.align	2
 190              		.global	eyebrow_init
 191              		.thumb
 192              		.thumb_func
 193              		.type	eyebrow_init, %function
 194              	eyebrow_init:
 195              	.LFB70:
  57:main.c        **** }
  58:main.c        **** 
  59:main.c        **** void eyebrow_init(){
 196              		.loc 1 59 0
 197              		.cfi_startproc
 198              		@ args = 0, pretend = 0, frame = 0
 199              		@ frame_needed = 0, uses_anonymous_args = 0
 200 0000 08B5     		push	{r3, lr}
 201              		.cfi_def_cfa_offset 8
 202              		.cfi_offset 3, -8
 203              		.cfi_offset 14, -4
  60:main.c        ****     
  61:main.c        ****        /* Right_Eyebrow_WriteCompare1(4000);
  62:main.c        ****         Right_Eyebrow_WriteCompare2(4000);
  63:main.c        ****         
  64:main.c        ****         Left_Eyebrow_WriteCompare1(4000);
  65:main.c        ****         Left_Eyebrow_WriteCompare2(4000);
  66:main.c        ****         
  67:main.c        ****         BaseAndJaw_WriteCompare2(4000);
  68:main.c        ****         
  69:main.c        ****         Eyelid_WriteCompare2(4000);
  70:main.c        ****         
  71:main.c        ****         Lips_WriteCompare1(4000);
  72:main.c        ****         Lips_WriteCompare2(4000);*/
  73:main.c        ****         
  74:main.c        ****        // Neck_WriteCompare1(4000);
  75:main.c        ****         //Neck_WriteCompare2(4000);
  76:main.c        ****         BaseAndJaw_WriteCompare1(4000);
 204              		.loc 1 76 0
 205 0002 4FF47A60 		mov	r0, #4000
 206 0006 FFF7FEFF 		bl	BaseAndJaw_WriteCompare1
 207              	.LVL12:
 208 000a 08BD     		pop	{r3, pc}
 209              		.cfi_endproc
ARM GAS  C:\Users\teju\AppData\Local\Temp\cc6dVdYf.s 			page 6


 210              	.LFE70:
 211              		.size	eyebrow_init, .-eyebrow_init
 212              		.section	.text.jawopen,"ax",%progbits
 213              		.align	2
 214              		.global	jawopen
 215              		.thumb
 216              		.thumb_func
 217              		.type	jawopen, %function
 218              	jawopen:
 219              	.LFB71:
  77:main.c        **** }
  78:main.c        **** void jawopen(){
 220              		.loc 1 78 0
 221              		.cfi_startproc
 222              		@ args = 0, pretend = 0, frame = 0
 223              		@ frame_needed = 0, uses_anonymous_args = 0
 224 0000 10B5     		push	{r4, lr}
 225              		.cfi_def_cfa_offset 8
 226              		.cfi_offset 4, -8
 227              		.cfi_offset 14, -4
  79:main.c        ****     BaseAndJaw_Start();
 228              		.loc 1 79 0
 229 0002 FFF7FEFF 		bl	BaseAndJaw_Start
 230              	.LVL13:
 231              	.LBB2:
  80:main.c        ****     for(int i=0;i<2;i++)
 232              		.loc 1 80 0
 233 0006 0024     		movs	r4, #0
 234 0008 10E0     		b	.L16
 235              	.LVL14:
 236              	.L17:
  81:main.c        ****     {
  82:main.c        ****         
  83:main.c        ****         BaseAndJaw_WriteCompare2(1500);
 237              		.loc 1 83 0 discriminator 3
 238 000a 40F2DC50 		movw	r0, #1500
 239 000e FFF7FEFF 		bl	BaseAndJaw_WriteCompare2
 240              	.LVL15:
  84:main.c        ****         CyDelay(2000);
 241              		.loc 1 84 0 discriminator 3
 242 0012 4FF4FA60 		mov	r0, #2000
 243 0016 FFF7FEFF 		bl	CyDelay
 244              	.LVL16:
  85:main.c        ****         BaseAndJaw_WriteCompare2(2200);
 245              		.loc 1 85 0 discriminator 3
 246 001a 40F69800 		movw	r0, #2200
 247 001e FFF7FEFF 		bl	BaseAndJaw_WriteCompare2
 248              	.LVL17:
  86:main.c        ****         CyDelay(2000);
 249              		.loc 1 86 0 discriminator 3
 250 0022 4FF4FA60 		mov	r0, #2000
 251 0026 FFF7FEFF 		bl	CyDelay
 252              	.LVL18:
  80:main.c        ****     {
 253              		.loc 1 80 0 discriminator 3
 254 002a 0134     		adds	r4, r4, #1
 255              	.LVL19:
ARM GAS  C:\Users\teju\AppData\Local\Temp\cc6dVdYf.s 			page 7


 256              	.L16:
  80:main.c        ****     {
 257              		.loc 1 80 0 is_stmt 0 discriminator 1
 258 002c 012C     		cmp	r4, #1
 259 002e ECDD     		ble	.L17
 260              	.LBE2:
  87:main.c        ****     }
  88:main.c        ****     
  89:main.c        ****     eyebrow_init();
 261              		.loc 1 89 0 is_stmt 1
 262 0030 FFF7FEFF 		bl	eyebrow_init
 263              	.LVL20:
 264 0034 10BD     		pop	{r4, pc}
 265              		.cfi_endproc
 266              	.LFE71:
 267              		.size	jawopen, .-jawopen
 268 0036 00BF     		.section	.text.baseturn,"ax",%progbits
 269              		.align	2
 270              		.global	baseturn
 271              		.thumb
 272              		.thumb_func
 273              		.type	baseturn, %function
 274              	baseturn:
 275              	.LFB72:
  90:main.c        **** }
  91:main.c        **** void baseturn(){
 276              		.loc 1 91 0
 277              		.cfi_startproc
 278              		@ args = 0, pretend = 0, frame = 0
 279              		@ frame_needed = 0, uses_anonymous_args = 0
 280 0000 10B5     		push	{r4, lr}
 281              		.cfi_def_cfa_offset 8
 282              		.cfi_offset 4, -8
 283              		.cfi_offset 14, -4
  92:main.c        ****     BaseAndJaw_Start();
 284              		.loc 1 92 0
 285 0002 FFF7FEFF 		bl	BaseAndJaw_Start
 286              	.LVL21:
 287              	.LBB3:
  93:main.c        ****     for(int i=0;i<5;i++)
 288              		.loc 1 93 0
 289 0006 0024     		movs	r4, #0
 290 0008 10E0     		b	.L20
 291              	.LVL22:
 292              	.L21:
  94:main.c        ****     {
  95:main.c        ****         BaseAndJaw_WriteCompare1(1500);
 293              		.loc 1 95 0 discriminator 3
 294 000a 40F2DC50 		movw	r0, #1500
 295 000e FFF7FEFF 		bl	BaseAndJaw_WriteCompare1
 296              	.LVL23:
  96:main.c        ****         
  97:main.c        ****         CyDelay(1000);
 297              		.loc 1 97 0 discriminator 3
 298 0012 4FF47A70 		mov	r0, #1000
 299 0016 FFF7FEFF 		bl	CyDelay
 300              	.LVL24:
ARM GAS  C:\Users\teju\AppData\Local\Temp\cc6dVdYf.s 			page 8


  98:main.c        ****         BaseAndJaw_WriteCompare1(3000);
 301              		.loc 1 98 0 discriminator 3
 302 001a 40F6B830 		movw	r0, #3000
 303 001e FFF7FEFF 		bl	BaseAndJaw_WriteCompare1
 304              	.LVL25:
  99:main.c        ****         CyDelay(1000);
 305              		.loc 1 99 0 discriminator 3
 306 0022 4FF47A70 		mov	r0, #1000
 307 0026 FFF7FEFF 		bl	CyDelay
 308              	.LVL26:
  93:main.c        ****     {
 309              		.loc 1 93 0 discriminator 3
 310 002a 0134     		adds	r4, r4, #1
 311              	.LVL27:
 312              	.L20:
  93:main.c        ****     {
 313              		.loc 1 93 0 is_stmt 0 discriminator 1
 314 002c 042C     		cmp	r4, #4
 315 002e ECDD     		ble	.L21
 316              	.LBE3:
 100:main.c        ****     }
 101:main.c        ****     
 102:main.c        ****     eyebrow_init();
 317              		.loc 1 102 0 is_stmt 1
 318 0030 FFF7FEFF 		bl	eyebrow_init
 319              	.LVL28:
 320 0034 10BD     		pop	{r4, pc}
 321              		.cfi_endproc
 322              	.LFE72:
 323              		.size	baseturn, .-baseturn
 324 0036 00BF     		.section	.text.nod,"ax",%progbits
 325              		.align	2
 326              		.global	nod
 327              		.thumb
 328              		.thumb_func
 329              		.type	nod, %function
 330              	nod:
 331              	.LFB73:
 103:main.c        **** }
 104:main.c        **** void nod(){
 332              		.loc 1 104 0
 333              		.cfi_startproc
 334              		@ args = 0, pretend = 0, frame = 0
 335              		@ frame_needed = 0, uses_anonymous_args = 0
 336 0000 10B5     		push	{r4, lr}
 337              		.cfi_def_cfa_offset 8
 338              		.cfi_offset 4, -8
 339              		.cfi_offset 14, -4
 105:main.c        ****     Neck_Start();
 340              		.loc 1 105 0
 341 0002 FFF7FEFF 		bl	Neck_Start
 342              	.LVL29:
 343              	.LBB4:
 106:main.c        ****     for(int i=0;i<1;i++)
 344              		.loc 1 106 0
 345 0006 0024     		movs	r4, #0
 346 0008 18E0     		b	.L24
ARM GAS  C:\Users\teju\AppData\Local\Temp\cc6dVdYf.s 			page 9


 347              	.LVL30:
 348              	.L25:
 107:main.c        ****     {
 108:main.c        ****         
 109:main.c        ****         
 110:main.c        ****         Neck_WriteCompare1(2500);
 349              		.loc 1 110 0 discriminator 3
 350 000a 40F6C410 		movw	r0, #2500
 351 000e FFF7FEFF 		bl	Neck_WriteCompare1
 352              	.LVL31:
 111:main.c        ****         Neck_WriteCompare2(2500);
 353              		.loc 1 111 0 discriminator 3
 354 0012 40F6C410 		movw	r0, #2500
 355 0016 FFF7FEFF 		bl	Neck_WriteCompare2
 356              	.LVL32:
 112:main.c        ****         CyDelay(1000);
 357              		.loc 1 112 0 discriminator 3
 358 001a 4FF47A70 		mov	r0, #1000
 359 001e FFF7FEFF 		bl	CyDelay
 360              	.LVL33:
 113:main.c        ****         Neck_WriteCompare1(2550);
 361              		.loc 1 113 0 discriminator 3
 362 0022 40F6F610 		movw	r0, #2550
 363 0026 FFF7FEFF 		bl	Neck_WriteCompare1
 364              	.LVL34:
 114:main.c        ****         Neck_WriteCompare2(2550);
 365              		.loc 1 114 0 discriminator 3
 366 002a 40F6F610 		movw	r0, #2550
 367 002e FFF7FEFF 		bl	Neck_WriteCompare2
 368              	.LVL35:
 115:main.c        ****         CyDelay(1000);
 369              		.loc 1 115 0 discriminator 3
 370 0032 4FF47A70 		mov	r0, #1000
 371 0036 FFF7FEFF 		bl	CyDelay
 372              	.LVL36:
 106:main.c        ****     {
 373              		.loc 1 106 0 discriminator 3
 374 003a 0134     		adds	r4, r4, #1
 375              	.LVL37:
 376              	.L24:
 106:main.c        ****     {
 377              		.loc 1 106 0 is_stmt 0 discriminator 1
 378 003c 002C     		cmp	r4, #0
 379 003e E4DD     		ble	.L25
 380              	.LBE4:
 116:main.c        ****     }
 117:main.c        ****     
 118:main.c        ****     eyebrow_init();
 381              		.loc 1 118 0 is_stmt 1
 382 0040 FFF7FEFF 		bl	eyebrow_init
 383              	.LVL38:
 384 0044 10BD     		pop	{r4, pc}
 385              		.cfi_endproc
 386              	.LFE73:
 387              		.size	nod, .-nod
 388 0046 00BF     		.section	.text.lipmovement,"ax",%progbits
 389              		.align	2
ARM GAS  C:\Users\teju\AppData\Local\Temp\cc6dVdYf.s 			page 10


 390              		.global	lipmovement
 391              		.thumb
 392              		.thumb_func
 393              		.type	lipmovement, %function
 394              	lipmovement:
 395              	.LFB74:
 119:main.c        **** }
 120:main.c        **** void lipmovement(){
 396              		.loc 1 120 0
 397              		.cfi_startproc
 398              		@ args = 0, pretend = 0, frame = 0
 399              		@ frame_needed = 0, uses_anonymous_args = 0
 400 0000 10B5     		push	{r4, lr}
 401              		.cfi_def_cfa_offset 8
 402              		.cfi_offset 4, -8
 403              		.cfi_offset 14, -4
 121:main.c        ****     Lips_Start();
 404              		.loc 1 121 0
 405 0002 FFF7FEFF 		bl	Lips_Start
 406              	.LVL39:
 122:main.c        ****     eyebrow_init();
 407              		.loc 1 122 0
 408 0006 FFF7FEFF 		bl	eyebrow_init
 409              	.LVL40:
 410              	.LBB5:
 123:main.c        ****     for(int i=0;i<5;i++)
 411              		.loc 1 123 0
 412 000a 0024     		movs	r4, #0
 413 000c 18E0     		b	.L28
 414              	.LVL41:
 415              	.L29:
 124:main.c        ****     {
 125:main.c        ****         Lips_WriteCompare1(3500);
 416              		.loc 1 125 0 discriminator 3
 417 000e 40F6AC50 		movw	r0, #3500
 418 0012 FFF7FEFF 		bl	Lips_WriteCompare1
 419              	.LVL42:
 126:main.c        ****         Lips_WriteCompare2(5500);
 420              		.loc 1 126 0 discriminator 3
 421 0016 41F27C50 		movw	r0, #5500
 422 001a FFF7FEFF 		bl	Lips_WriteCompare2
 423              	.LVL43:
 127:main.c        ****         CyDelay(1000);
 424              		.loc 1 127 0 discriminator 3
 425 001e 4FF47A70 		mov	r0, #1000
 426 0022 FFF7FEFF 		bl	CyDelay
 427              	.LVL44:
 128:main.c        ****         Lips_WriteCompare1(5500);
 428              		.loc 1 128 0 discriminator 3
 429 0026 41F27C50 		movw	r0, #5500
 430 002a FFF7FEFF 		bl	Lips_WriteCompare1
 431              	.LVL45:
 129:main.c        ****         Lips_WriteCompare2(3500);
 432              		.loc 1 129 0 discriminator 3
 433 002e 40F6AC50 		movw	r0, #3500
 434 0032 FFF7FEFF 		bl	Lips_WriteCompare2
 435              	.LVL46:
ARM GAS  C:\Users\teju\AppData\Local\Temp\cc6dVdYf.s 			page 11


 130:main.c        ****         CyDelay(1000);
 436              		.loc 1 130 0 discriminator 3
 437 0036 4FF47A70 		mov	r0, #1000
 438 003a FFF7FEFF 		bl	CyDelay
 439              	.LVL47:
 123:main.c        ****     {
 440              		.loc 1 123 0 discriminator 3
 441 003e 0134     		adds	r4, r4, #1
 442              	.LVL48:
 443              	.L28:
 123:main.c        ****     {
 444              		.loc 1 123 0 is_stmt 0 discriminator 1
 445 0040 042C     		cmp	r4, #4
 446 0042 E4DD     		ble	.L29
 447              	.LBE5:
 131:main.c        ****     }
 132:main.c        **** }
 448              		.loc 1 132 0 is_stmt 1
 449 0044 10BD     		pop	{r4, pc}
 450              		.cfi_endproc
 451              	.LFE74:
 452              		.size	lipmovement, .-lipmovement
 453 0046 00BF     		.section	.text.eyelid_openclose,"ax",%progbits
 454              		.align	2
 455              		.global	eyelid_openclose
 456              		.thumb
 457              		.thumb_func
 458              		.type	eyelid_openclose, %function
 459              	eyelid_openclose:
 460              	.LFB75:
 133:main.c        **** void eyelid_openclose(){
 461              		.loc 1 133 0
 462              		.cfi_startproc
 463              		@ args = 0, pretend = 0, frame = 0
 464              		@ frame_needed = 0, uses_anonymous_args = 0
 465 0000 10B5     		push	{r4, lr}
 466              		.cfi_def_cfa_offset 8
 467              		.cfi_offset 4, -8
 468              		.cfi_offset 14, -4
 134:main.c        ****     eyebrow_init();
 469              		.loc 1 134 0
 470 0002 FFF7FEFF 		bl	eyebrow_init
 471              	.LVL49:
 472              	.LBB6:
 135:main.c        **** for(int i=0;i<10;i++)
 473              		.loc 1 135 0
 474 0006 0024     		movs	r4, #0
 475 0008 14E0     		b	.L32
 476              	.LVL50:
 477              	.L33:
 136:main.c        ****     {
 137:main.c        ****         BaseAndJaw_WriteCompare1(1500);
 478              		.loc 1 137 0 discriminator 3
 479 000a 40F2DC50 		movw	r0, #1500
 480 000e FFF7FEFF 		bl	BaseAndJaw_WriteCompare1
 481              	.LVL51:
 138:main.c        ****         Eyelid_WriteCompare2(3700);
ARM GAS  C:\Users\teju\AppData\Local\Temp\cc6dVdYf.s 			page 12


 482              		.loc 1 138 0 discriminator 3
 483 0012 40F67460 		movw	r0, #3700
 484 0016 FFF7FEFF 		bl	Eyelid_WriteCompare2
 485              	.LVL52:
 139:main.c        ****         CyDelay(1000);
 486              		.loc 1 139 0 discriminator 3
 487 001a 4FF47A70 		mov	r0, #1000
 488 001e FFF7FEFF 		bl	CyDelay
 489              	.LVL53:
 140:main.c        ****         Eyelid_WriteCompare2(4300);
 490              		.loc 1 140 0 discriminator 3
 491 0022 41F2CC00 		movw	r0, #4300
 492 0026 FFF7FEFF 		bl	Eyelid_WriteCompare2
 493              	.LVL54:
 141:main.c        ****         CyDelay(1000);
 494              		.loc 1 141 0 discriminator 3
 495 002a 4FF47A70 		mov	r0, #1000
 496 002e FFF7FEFF 		bl	CyDelay
 497              	.LVL55:
 135:main.c        ****     {
 498              		.loc 1 135 0 discriminator 3
 499 0032 0134     		adds	r4, r4, #1
 500              	.LVL56:
 501              	.L32:
 135:main.c        ****     {
 502              		.loc 1 135 0 is_stmt 0 discriminator 1
 503 0034 092C     		cmp	r4, #9
 504 0036 E8DD     		ble	.L33
 505              	.LBE6:
 142:main.c        ****     }
 143:main.c        ****     eyebrow_init();
 506              		.loc 1 143 0 is_stmt 1
 507 0038 FFF7FEFF 		bl	eyebrow_init
 508              	.LVL57:
 509 003c 10BD     		pop	{r4, pc}
 510              		.cfi_endproc
 511              	.LFE75:
 512              		.size	eyelid_openclose, .-eyelid_openclose
 513 003e 00BF     		.section	.text.eyemovement,"ax",%progbits
 514              		.align	2
 515              		.global	eyemovement
 516              		.thumb
 517              		.thumb_func
 518              		.type	eyemovement, %function
 519              	eyemovement:
 520              	.LFB76:
 144:main.c        **** }
 145:main.c        **** 
 146:main.c        **** void eyemovement(){
 521              		.loc 1 146 0
 522              		.cfi_startproc
 523              		@ args = 0, pretend = 0, frame = 0
 524              		@ frame_needed = 0, uses_anonymous_args = 0
 525 0000 10B5     		push	{r4, lr}
 526              		.cfi_def_cfa_offset 8
 527              		.cfi_offset 4, -8
 528              		.cfi_offset 14, -4
ARM GAS  C:\Users\teju\AppData\Local\Temp\cc6dVdYf.s 			page 13


 147:main.c        ****     
 148:main.c        ****     Left_Eyeball_Start();
 529              		.loc 1 148 0
 530 0002 FFF7FEFF 		bl	Left_Eyeball_Start
 531              	.LVL58:
 149:main.c        ****     Right_Eyeball_Start();
 532              		.loc 1 149 0
 533 0006 FFF7FEFF 		bl	Right_Eyeball_Start
 534              	.LVL59:
 150:main.c        ****     
 151:main.c        ****     Left_Eyeball_WriteCompare1(4000);
 535              		.loc 1 151 0
 536 000a 4FF47A60 		mov	r0, #4000
 537 000e FFF7FEFF 		bl	Left_Eyeball_WriteCompare1
 538              	.LVL60:
 152:main.c        ****     Right_Eyeball_WriteCompare1(4000);
 539              		.loc 1 152 0
 540 0012 4FF47A60 		mov	r0, #4000
 541 0016 FFF7FEFF 		bl	Right_Eyeball_WriteCompare1
 542              	.LVL61:
 153:main.c        ****     
 154:main.c        ****     Left_Eyeball_WriteCompare2(4000);
 543              		.loc 1 154 0
 544 001a 4FF47A60 		mov	r0, #4000
 545 001e FFF7FEFF 		bl	Left_Eyeball_WriteCompare2
 546              	.LVL62:
 155:main.c        ****     Right_Eyeball_WriteCompare2(4000);
 547              		.loc 1 155 0
 548 0022 4FF47A60 		mov	r0, #4000
 549 0026 FFF7FEFF 		bl	Right_Eyeball_WriteCompare2
 550              	.LVL63:
 551              	.LBB7:
 156:main.c        ****     
 157:main.c        ****     for(int i=0;i<3;i++)
 552              		.loc 1 157 0
 553 002a 0024     		movs	r4, #0
 554 002c 18E0     		b	.L36
 555              	.LVL64:
 556              	.L37:
 158:main.c        ****     {
 159:main.c        ****        // BaseAndJaw_WriteCompare1(1500);
 160:main.c        ****         Left_Eyeball_WriteCompare1(3000); // Inner 
 557              		.loc 1 160 0 discriminator 3
 558 002e 40F6B830 		movw	r0, #3000
 559 0032 FFF7FEFF 		bl	Left_Eyeball_WriteCompare1
 560              	.LVL65:
 161:main.c        ****         Left_Eyeball_WriteCompare2(5000);  // Outer
 561              		.loc 1 161 0 discriminator 3
 562 0036 41F28830 		movw	r0, #5000
 563 003a FFF7FEFF 		bl	Left_Eyeball_WriteCompare2
 564              	.LVL66:
 162:main.c        ****         CyDelay(1000);
 565              		.loc 1 162 0 discriminator 3
 566 003e 4FF47A70 		mov	r0, #1000
 567 0042 FFF7FEFF 		bl	CyDelay
 568              	.LVL67:
 163:main.c        ****         
ARM GAS  C:\Users\teju\AppData\Local\Temp\cc6dVdYf.s 			page 14


 164:main.c        ****         Left_Eyeball_WriteCompare1(5000); // Inner 
 569              		.loc 1 164 0 discriminator 3
 570 0046 41F28830 		movw	r0, #5000
 571 004a FFF7FEFF 		bl	Left_Eyeball_WriteCompare1
 572              	.LVL68:
 165:main.c        ****         Left_Eyeball_WriteCompare2(3000);
 573              		.loc 1 165 0 discriminator 3
 574 004e 40F6B830 		movw	r0, #3000
 575 0052 FFF7FEFF 		bl	Left_Eyeball_WriteCompare2
 576              	.LVL69:
 166:main.c        ****        // Right_Eyeball_WriteCompare1(5000); // Inner 
 167:main.c        ****        // Right_Eyeball_WriteCompare2(3000);  // Outer
 168:main.c        ****         CyDelay(1000);
 577              		.loc 1 168 0 discriminator 3
 578 0056 4FF47A70 		mov	r0, #1000
 579 005a FFF7FEFF 		bl	CyDelay
 580              	.LVL70:
 157:main.c        ****     {
 581              		.loc 1 157 0 discriminator 3
 582 005e 0134     		adds	r4, r4, #1
 583              	.LVL71:
 584              	.L36:
 157:main.c        ****     {
 585              		.loc 1 157 0 is_stmt 0 discriminator 1
 586 0060 022C     		cmp	r4, #2
 587 0062 E4DD     		ble	.L37
 588              	.LBE7:
 169:main.c        ****     }
 170:main.c        ****     Left_Eyeball_WriteCompare1(4000);
 589              		.loc 1 170 0 is_stmt 1
 590 0064 4FF47A60 		mov	r0, #4000
 591 0068 FFF7FEFF 		bl	Left_Eyeball_WriteCompare1
 592              	.LVL72:
 171:main.c        ****     Right_Eyeball_WriteCompare1(4000);
 593              		.loc 1 171 0
 594 006c 4FF47A60 		mov	r0, #4000
 595 0070 FFF7FEFF 		bl	Right_Eyeball_WriteCompare1
 596              	.LVL73:
 172:main.c        ****     Left_Eyeball_WriteCompare2(4000);
 597              		.loc 1 172 0
 598 0074 4FF47A60 		mov	r0, #4000
 599 0078 FFF7FEFF 		bl	Left_Eyeball_WriteCompare2
 600              	.LVL74:
 173:main.c        ****     Right_Eyeball_WriteCompare2(4000);
 601              		.loc 1 173 0
 602 007c 4FF47A60 		mov	r0, #4000
 603 0080 FFF7FEFF 		bl	Right_Eyeball_WriteCompare2
 604              	.LVL75:
 605 0084 10BD     		pop	{r4, pc}
 606              		.cfi_endproc
 607              	.LFE76:
 608              		.size	eyemovement, .-eyemovement
 609 0086 00BF     		.section	.text.main,"ax",%progbits
 610              		.align	2
 611              		.global	main
 612              		.thumb
 613              		.thumb_func
ARM GAS  C:\Users\teju\AppData\Local\Temp\cc6dVdYf.s 			page 15


 614              		.type	main, %function
 615              	main:
 616              	.LFB77:
 174:main.c        **** }
 175:main.c        **** int main(void)
 176:main.c        **** {
 617              		.loc 1 176 0
 618              		.cfi_startproc
 619              		@ args = 0, pretend = 0, frame = 0
 620              		@ frame_needed = 0, uses_anonymous_args = 0
 621 0000 08B5     		push	{r3, lr}
 622              		.cfi_def_cfa_offset 8
 623              		.cfi_offset 3, -8
 624              		.cfi_offset 14, -4
 177:main.c        ****     
 178:main.c        **** 
 179:main.c        ****     
 180:main.c        ****      Right_Eyebrow_Start();
 625              		.loc 1 180 0
 626 0002 FFF7FEFF 		bl	Right_Eyebrow_Start
 627              	.LVL76:
 181:main.c        ****     eyebrow_init();
 628              		.loc 1 181 0
 629 0006 FFF7FEFF 		bl	eyebrow_init
 630              	.LVL77:
 182:main.c        ****    /* Left_Eyebrow_Start();
 183:main.c        ****     eyebrow_init();
 184:main.c        ****       CyDelay(1000);
 185:main.c        ****     for(int i=0;i<3;i++)
 186:main.c        ****     {  
 187:main.c        ****         
 188:main.c        ****       right_eyebrow_lift();
 189:main.c        ****       left_eyebrow_lift();
 190:main.c        ****       CyDelay(1000);
 191:main.c        ****       //  reset_right();
 192:main.c        ****       //  reset_left();
 193:main.c        ****        // CyDelay(1000);
 194:main.c        ****        right_eyebrow_down();
 195:main.c        ****         left_eyebrow_down();
 196:main.c        ****          CyDelay(2000);
 197:main.c        ****     }*/
 198:main.c        ****    // CyDelay(15000);
 199:main.c        ****     
 200:main.c        ****     eyebrow_init();
 631              		.loc 1 200 0
 632 000a FFF7FEFF 		bl	eyebrow_init
 633              	.LVL78:
 201:main.c        ****     //Eyelid_Start();
 202:main.c        ****     //eyemovement();
 203:main.c        ****     //lipmovement();
 204:main.c        ****     
 205:main.c        ****    /* for(int i=0;i<5;i++)
 206:main.c        ****     {
 207:main.c        ****        // BaseAndJaw_WriteCompare1(1500);
 208:main.c        ****         Eyelid_WriteCompare2(3950);
 209:main.c        ****         CyDelay(1000);
 210:main.c        ****         Eyelid_WriteCompare2(4050);
ARM GAS  C:\Users\teju\AppData\Local\Temp\cc6dVdYf.s 			page 16


 211:main.c        ****         CyDelay(1000);
 212:main.c        ****     }*/
 213:main.c        ****    // nod();
 214:main.c        ****     //eyelid_openclose();
 215:main.c        ****      //jawopen();
 216:main.c        ****     baseturn();
 634              		.loc 1 216 0
 635 000e FFF7FEFF 		bl	baseturn
 636              	.LVL79:
 217:main.c        ****     eyebrow_init();
 637              		.loc 1 217 0
 638 0012 FFF7FEFF 		bl	eyebrow_init
 639              	.LVL80:
 218:main.c        **** }
 640              		.loc 1 218 0
 641 0016 0020     		movs	r0, #0
 642 0018 08BD     		pop	{r3, pc}
 643              		.cfi_endproc
 644              	.LFE77:
 645              		.size	main, .-main
 646 001a 00BF     		.text
 647              	.Letext0:
 648              		.file 2 "c:\\program files (x86)\\cypress\\psoc creator\\4.1\\psoc creator\\import\\gnu\\arm\\5.4.
 649              		.file 3 "c:\\program files (x86)\\cypress\\psoc creator\\4.1\\psoc creator\\import\\gnu\\arm\\5.4.
 650              		.file 4 "Generated_Source\\PSoC5/Left_Eyebrow.h"
 651              		.file 5 "Generated_Source\\PSoC5/Right_Eyebrow.h"
 652              		.file 6 "Generated_Source\\PSoC5/BaseAndJaw.h"
 653              		.file 7 "Generated_Source\\PSoC5/CyLib.h"
 654              		.file 8 "Generated_Source\\PSoC5/Neck.h"
 655              		.file 9 "Generated_Source\\PSoC5/Lips.h"
 656              		.file 10 "Generated_Source\\PSoC5/Eyelid.h"
 657              		.file 11 "Generated_Source\\PSoC5/Left_Eyeball.h"
 658              		.file 12 "Generated_Source\\PSoC5/Right_Eyeball.h"
 659              		.file 13 "Generated_Source\\PSoC5/core_cm3.h"