ARM GAS  C:\Users\vivek\AppData\Local\Temp\cc6zFIJh.s 			page 1


   1              		.syntax unified
   2              		.cpu cortex-m3
   3              		.fpu softvfp
   4              		.eabi_attribute 20, 1
   5              		.eabi_attribute 21, 1
   6              		.eabi_attribute 23, 3
   7              		.eabi_attribute 24, 1
   8              		.eabi_attribute 25, 1
   9              		.eabi_attribute 26, 1
  10              		.eabi_attribute 30, 4
  11              		.eabi_attribute 34, 1
  12              		.eabi_attribute 18, 4
  13              		.thumb
  14              		.syntax unified
  15              		.file	"Left_Eyebrow.c"
  16              		.text
  17              	.Ltext0:
  18              		.cfi_sections	.debug_frame
  19              		.section	.text.Left_Eyebrow_Enable,"ax",%progbits
  20              		.align	1
  21              		.global	Left_Eyebrow_Enable
  22              		.thumb
  23              		.thumb_func
  24              		.type	Left_Eyebrow_Enable, %function
  25              	Left_Eyebrow_Enable:
  26              	.LFB2:
  27              		.file 1 "Generated_Source\\PSoC5\\Left_Eyebrow.c"
   1:Generated_Source\PSoC5/Left_Eyebrow.c **** /*******************************************************************************
   2:Generated_Source\PSoC5/Left_Eyebrow.c **** * File Name: Left_Eyebrow.c
   3:Generated_Source\PSoC5/Left_Eyebrow.c **** * Version 3.30
   4:Generated_Source\PSoC5/Left_Eyebrow.c **** *
   5:Generated_Source\PSoC5/Left_Eyebrow.c **** * Description:
   6:Generated_Source\PSoC5/Left_Eyebrow.c **** *  The PWM User Module consist of an 8 or 16-bit counter with two 8 or 16-bit
   7:Generated_Source\PSoC5/Left_Eyebrow.c **** *  comparitors. Each instance of this user module is capable of generating
   8:Generated_Source\PSoC5/Left_Eyebrow.c **** *  two PWM outputs with the same period. The pulse width is selectable between
   9:Generated_Source\PSoC5/Left_Eyebrow.c **** *  1 and 255/65535. The period is selectable between 2 and 255/65536 clocks.
  10:Generated_Source\PSoC5/Left_Eyebrow.c **** *  The compare value output may be configured to be active when the present
  11:Generated_Source\PSoC5/Left_Eyebrow.c **** *  counter is less than or less than/equal to the compare value.
  12:Generated_Source\PSoC5/Left_Eyebrow.c **** *  A terminal count output is also provided. It generates a pulse one clock
  13:Generated_Source\PSoC5/Left_Eyebrow.c **** *  width wide when the counter is equal to zero.
  14:Generated_Source\PSoC5/Left_Eyebrow.c **** *
  15:Generated_Source\PSoC5/Left_Eyebrow.c **** * Note:
  16:Generated_Source\PSoC5/Left_Eyebrow.c **** *
  17:Generated_Source\PSoC5/Left_Eyebrow.c **** *******************************************************************************
  18:Generated_Source\PSoC5/Left_Eyebrow.c **** * Copyright 2008-2014, Cypress Semiconductor Corporation.  All rights reserved.
  19:Generated_Source\PSoC5/Left_Eyebrow.c **** * You may use this file only in accordance with the license, terms, conditions,
  20:Generated_Source\PSoC5/Left_Eyebrow.c **** * disclaimers, and limitations in the end user license agreement accompanying
  21:Generated_Source\PSoC5/Left_Eyebrow.c **** * the software package with which this file was provided.
  22:Generated_Source\PSoC5/Left_Eyebrow.c **** ********************************************************************************/
  23:Generated_Source\PSoC5/Left_Eyebrow.c **** 
  24:Generated_Source\PSoC5/Left_Eyebrow.c **** #include "Left_Eyebrow.h"
  25:Generated_Source\PSoC5/Left_Eyebrow.c **** 
  26:Generated_Source\PSoC5/Left_Eyebrow.c **** /* Error message for removed <resource> through optimization */
  27:Generated_Source\PSoC5/Left_Eyebrow.c **** #ifdef Left_Eyebrow_PWMUDB_genblk1_ctrlreg__REMOVED
  28:Generated_Source\PSoC5/Left_Eyebrow.c ****     #error PWM_v3_30 detected with a constant 0 for the enable or \
  29:Generated_Source\PSoC5/Left_Eyebrow.c ****          constant 1 for reset. This will prevent the component from operating.
  30:Generated_Source\PSoC5/Left_Eyebrow.c **** #endif /* Left_Eyebrow_PWMUDB_genblk1_ctrlreg__REMOVED */
ARM GAS  C:\Users\vivek\AppData\Local\Temp\cc6zFIJh.s 			page 2


  31:Generated_Source\PSoC5/Left_Eyebrow.c **** 
  32:Generated_Source\PSoC5/Left_Eyebrow.c **** uint8 Left_Eyebrow_initVar = 0u;
  33:Generated_Source\PSoC5/Left_Eyebrow.c **** 
  34:Generated_Source\PSoC5/Left_Eyebrow.c **** 
  35:Generated_Source\PSoC5/Left_Eyebrow.c **** /*******************************************************************************
  36:Generated_Source\PSoC5/Left_Eyebrow.c **** * Function Name: Left_Eyebrow_Start
  37:Generated_Source\PSoC5/Left_Eyebrow.c **** ********************************************************************************
  38:Generated_Source\PSoC5/Left_Eyebrow.c **** *
  39:Generated_Source\PSoC5/Left_Eyebrow.c **** * Summary:
  40:Generated_Source\PSoC5/Left_Eyebrow.c **** *  The start function initializes the pwm with the default values, the
  41:Generated_Source\PSoC5/Left_Eyebrow.c **** *  enables the counter to begin counting.  It does not enable interrupts,
  42:Generated_Source\PSoC5/Left_Eyebrow.c **** *  the EnableInt command should be called if interrupt generation is required.
  43:Generated_Source\PSoC5/Left_Eyebrow.c **** *
  44:Generated_Source\PSoC5/Left_Eyebrow.c **** * Parameters:
  45:Generated_Source\PSoC5/Left_Eyebrow.c **** *  None
  46:Generated_Source\PSoC5/Left_Eyebrow.c **** *
  47:Generated_Source\PSoC5/Left_Eyebrow.c **** * Return:
  48:Generated_Source\PSoC5/Left_Eyebrow.c **** *  None
  49:Generated_Source\PSoC5/Left_Eyebrow.c **** *
  50:Generated_Source\PSoC5/Left_Eyebrow.c **** * Global variables:
  51:Generated_Source\PSoC5/Left_Eyebrow.c **** *  Left_Eyebrow_initVar: Is modified when this function is called for the
  52:Generated_Source\PSoC5/Left_Eyebrow.c **** *   first time. Is used to ensure that initialization happens only once.
  53:Generated_Source\PSoC5/Left_Eyebrow.c **** *
  54:Generated_Source\PSoC5/Left_Eyebrow.c **** *******************************************************************************/
  55:Generated_Source\PSoC5/Left_Eyebrow.c **** void Left_Eyebrow_Start(void) 
  56:Generated_Source\PSoC5/Left_Eyebrow.c **** {
  57:Generated_Source\PSoC5/Left_Eyebrow.c ****     /* If not Initialized then initialize all required hardware and software */
  58:Generated_Source\PSoC5/Left_Eyebrow.c ****     if(Left_Eyebrow_initVar == 0u)
  59:Generated_Source\PSoC5/Left_Eyebrow.c ****     {
  60:Generated_Source\PSoC5/Left_Eyebrow.c ****         Left_Eyebrow_Init();
  61:Generated_Source\PSoC5/Left_Eyebrow.c ****         Left_Eyebrow_initVar = 1u;
  62:Generated_Source\PSoC5/Left_Eyebrow.c ****     }
  63:Generated_Source\PSoC5/Left_Eyebrow.c ****     Left_Eyebrow_Enable();
  64:Generated_Source\PSoC5/Left_Eyebrow.c **** 
  65:Generated_Source\PSoC5/Left_Eyebrow.c **** }
  66:Generated_Source\PSoC5/Left_Eyebrow.c **** 
  67:Generated_Source\PSoC5/Left_Eyebrow.c **** 
  68:Generated_Source\PSoC5/Left_Eyebrow.c **** /*******************************************************************************
  69:Generated_Source\PSoC5/Left_Eyebrow.c **** * Function Name: Left_Eyebrow_Init
  70:Generated_Source\PSoC5/Left_Eyebrow.c **** ********************************************************************************
  71:Generated_Source\PSoC5/Left_Eyebrow.c **** *
  72:Generated_Source\PSoC5/Left_Eyebrow.c **** * Summary:
  73:Generated_Source\PSoC5/Left_Eyebrow.c **** *  Initialize component's parameters to the parameters set by user in the
  74:Generated_Source\PSoC5/Left_Eyebrow.c **** *  customizer of the component placed onto schematic. Usually called in
  75:Generated_Source\PSoC5/Left_Eyebrow.c **** *  Left_Eyebrow_Start().
  76:Generated_Source\PSoC5/Left_Eyebrow.c **** *
  77:Generated_Source\PSoC5/Left_Eyebrow.c **** * Parameters:
  78:Generated_Source\PSoC5/Left_Eyebrow.c **** *  None
  79:Generated_Source\PSoC5/Left_Eyebrow.c **** *
  80:Generated_Source\PSoC5/Left_Eyebrow.c **** * Return:
  81:Generated_Source\PSoC5/Left_Eyebrow.c **** *  None
  82:Generated_Source\PSoC5/Left_Eyebrow.c **** *
  83:Generated_Source\PSoC5/Left_Eyebrow.c **** *******************************************************************************/
  84:Generated_Source\PSoC5/Left_Eyebrow.c **** void Left_Eyebrow_Init(void) 
  85:Generated_Source\PSoC5/Left_Eyebrow.c **** {
  86:Generated_Source\PSoC5/Left_Eyebrow.c ****     #if (Left_Eyebrow_UsingFixedFunction || Left_Eyebrow_UseControl)
  87:Generated_Source\PSoC5/Left_Eyebrow.c ****         uint8 ctrl;
ARM GAS  C:\Users\vivek\AppData\Local\Temp\cc6zFIJh.s 			page 3


  88:Generated_Source\PSoC5/Left_Eyebrow.c ****     #endif /* (Left_Eyebrow_UsingFixedFunction || Left_Eyebrow_UseControl) */
  89:Generated_Source\PSoC5/Left_Eyebrow.c **** 
  90:Generated_Source\PSoC5/Left_Eyebrow.c ****     #if(!Left_Eyebrow_UsingFixedFunction)
  91:Generated_Source\PSoC5/Left_Eyebrow.c ****         #if(Left_Eyebrow_UseStatus)
  92:Generated_Source\PSoC5/Left_Eyebrow.c ****             /* Interrupt State Backup for Critical Region*/
  93:Generated_Source\PSoC5/Left_Eyebrow.c ****             uint8 Left_Eyebrow_interruptState;
  94:Generated_Source\PSoC5/Left_Eyebrow.c ****         #endif /* (Left_Eyebrow_UseStatus) */
  95:Generated_Source\PSoC5/Left_Eyebrow.c ****     #endif /* (!Left_Eyebrow_UsingFixedFunction) */
  96:Generated_Source\PSoC5/Left_Eyebrow.c **** 
  97:Generated_Source\PSoC5/Left_Eyebrow.c ****     #if (Left_Eyebrow_UsingFixedFunction)
  98:Generated_Source\PSoC5/Left_Eyebrow.c ****         /* You are allowed to write the compare value (FF only) */
  99:Generated_Source\PSoC5/Left_Eyebrow.c ****         Left_Eyebrow_CONTROL |= Left_Eyebrow_CFG0_MODE;
 100:Generated_Source\PSoC5/Left_Eyebrow.c ****         #if (Left_Eyebrow_DeadBand2_4)
 101:Generated_Source\PSoC5/Left_Eyebrow.c ****             Left_Eyebrow_CONTROL |= Left_Eyebrow_CFG0_DB;
 102:Generated_Source\PSoC5/Left_Eyebrow.c ****         #endif /* (Left_Eyebrow_DeadBand2_4) */
 103:Generated_Source\PSoC5/Left_Eyebrow.c **** 
 104:Generated_Source\PSoC5/Left_Eyebrow.c ****         ctrl = Left_Eyebrow_CONTROL3 & ((uint8 )(~Left_Eyebrow_CTRL_CMPMODE1_MASK));
 105:Generated_Source\PSoC5/Left_Eyebrow.c ****         Left_Eyebrow_CONTROL3 = ctrl | Left_Eyebrow_DEFAULT_COMPARE1_MODE;
 106:Generated_Source\PSoC5/Left_Eyebrow.c **** 
 107:Generated_Source\PSoC5/Left_Eyebrow.c ****          /* Clear and Set SYNCTC and SYNCCMP bits of RT1 register */
 108:Generated_Source\PSoC5/Left_Eyebrow.c ****         Left_Eyebrow_RT1 &= ((uint8)(~Left_Eyebrow_RT1_MASK));
 109:Generated_Source\PSoC5/Left_Eyebrow.c ****         Left_Eyebrow_RT1 |= Left_Eyebrow_SYNC;
 110:Generated_Source\PSoC5/Left_Eyebrow.c **** 
 111:Generated_Source\PSoC5/Left_Eyebrow.c ****         /*Enable DSI Sync all all inputs of the PWM*/
 112:Generated_Source\PSoC5/Left_Eyebrow.c ****         Left_Eyebrow_RT1 &= ((uint8)(~Left_Eyebrow_SYNCDSI_MASK));
 113:Generated_Source\PSoC5/Left_Eyebrow.c ****         Left_Eyebrow_RT1 |= Left_Eyebrow_SYNCDSI_EN;
 114:Generated_Source\PSoC5/Left_Eyebrow.c **** 
 115:Generated_Source\PSoC5/Left_Eyebrow.c ****     #elif (Left_Eyebrow_UseControl)
 116:Generated_Source\PSoC5/Left_Eyebrow.c ****         /* Set the default compare mode defined in the parameter */
 117:Generated_Source\PSoC5/Left_Eyebrow.c ****         ctrl = Left_Eyebrow_CONTROL & ((uint8)(~Left_Eyebrow_CTRL_CMPMODE2_MASK)) &
 118:Generated_Source\PSoC5/Left_Eyebrow.c ****                 ((uint8)(~Left_Eyebrow_CTRL_CMPMODE1_MASK));
 119:Generated_Source\PSoC5/Left_Eyebrow.c ****         Left_Eyebrow_CONTROL = ctrl | Left_Eyebrow_DEFAULT_COMPARE2_MODE |
 120:Generated_Source\PSoC5/Left_Eyebrow.c ****                                    Left_Eyebrow_DEFAULT_COMPARE1_MODE;
 121:Generated_Source\PSoC5/Left_Eyebrow.c ****     #endif /* (Left_Eyebrow_UsingFixedFunction) */
 122:Generated_Source\PSoC5/Left_Eyebrow.c **** 
 123:Generated_Source\PSoC5/Left_Eyebrow.c ****     #if (!Left_Eyebrow_UsingFixedFunction)
 124:Generated_Source\PSoC5/Left_Eyebrow.c ****         #if (Left_Eyebrow_Resolution == 8)
 125:Generated_Source\PSoC5/Left_Eyebrow.c ****             /* Set FIFO 0 to 1 byte register for period*/
 126:Generated_Source\PSoC5/Left_Eyebrow.c ****             Left_Eyebrow_AUX_CONTROLDP0 |= (Left_Eyebrow_AUX_CTRL_FIFO0_CLR);
 127:Generated_Source\PSoC5/Left_Eyebrow.c ****         #else /* (Left_Eyebrow_Resolution == 16)*/
 128:Generated_Source\PSoC5/Left_Eyebrow.c ****             /* Set FIFO 0 to 1 byte register for period */
 129:Generated_Source\PSoC5/Left_Eyebrow.c ****             Left_Eyebrow_AUX_CONTROLDP0 |= (Left_Eyebrow_AUX_CTRL_FIFO0_CLR);
 130:Generated_Source\PSoC5/Left_Eyebrow.c ****             Left_Eyebrow_AUX_CONTROLDP1 |= (Left_Eyebrow_AUX_CTRL_FIFO0_CLR);
 131:Generated_Source\PSoC5/Left_Eyebrow.c ****         #endif /* (Left_Eyebrow_Resolution == 8) */
 132:Generated_Source\PSoC5/Left_Eyebrow.c **** 
 133:Generated_Source\PSoC5/Left_Eyebrow.c ****         Left_Eyebrow_WriteCounter(Left_Eyebrow_INIT_PERIOD_VALUE);
 134:Generated_Source\PSoC5/Left_Eyebrow.c ****     #endif /* (!Left_Eyebrow_UsingFixedFunction) */
 135:Generated_Source\PSoC5/Left_Eyebrow.c **** 
 136:Generated_Source\PSoC5/Left_Eyebrow.c ****     Left_Eyebrow_WritePeriod(Left_Eyebrow_INIT_PERIOD_VALUE);
 137:Generated_Source\PSoC5/Left_Eyebrow.c **** 
 138:Generated_Source\PSoC5/Left_Eyebrow.c ****         #if (Left_Eyebrow_UseOneCompareMode)
 139:Generated_Source\PSoC5/Left_Eyebrow.c ****             Left_Eyebrow_WriteCompare(Left_Eyebrow_INIT_COMPARE_VALUE1);
 140:Generated_Source\PSoC5/Left_Eyebrow.c ****         #else
 141:Generated_Source\PSoC5/Left_Eyebrow.c ****             Left_Eyebrow_WriteCompare1(Left_Eyebrow_INIT_COMPARE_VALUE1);
 142:Generated_Source\PSoC5/Left_Eyebrow.c ****             Left_Eyebrow_WriteCompare2(Left_Eyebrow_INIT_COMPARE_VALUE2);
 143:Generated_Source\PSoC5/Left_Eyebrow.c ****         #endif /* (Left_Eyebrow_UseOneCompareMode) */
 144:Generated_Source\PSoC5/Left_Eyebrow.c **** 
ARM GAS  C:\Users\vivek\AppData\Local\Temp\cc6zFIJh.s 			page 4


 145:Generated_Source\PSoC5/Left_Eyebrow.c ****         #if (Left_Eyebrow_KillModeMinTime)
 146:Generated_Source\PSoC5/Left_Eyebrow.c ****             Left_Eyebrow_WriteKillTime(Left_Eyebrow_MinimumKillTime);
 147:Generated_Source\PSoC5/Left_Eyebrow.c ****         #endif /* (Left_Eyebrow_KillModeMinTime) */
 148:Generated_Source\PSoC5/Left_Eyebrow.c **** 
 149:Generated_Source\PSoC5/Left_Eyebrow.c ****         #if (Left_Eyebrow_DeadBandUsed)
 150:Generated_Source\PSoC5/Left_Eyebrow.c ****             Left_Eyebrow_WriteDeadTime(Left_Eyebrow_INIT_DEAD_TIME);
 151:Generated_Source\PSoC5/Left_Eyebrow.c ****         #endif /* (Left_Eyebrow_DeadBandUsed) */
 152:Generated_Source\PSoC5/Left_Eyebrow.c **** 
 153:Generated_Source\PSoC5/Left_Eyebrow.c ****     #if (Left_Eyebrow_UseStatus || Left_Eyebrow_UsingFixedFunction)
 154:Generated_Source\PSoC5/Left_Eyebrow.c ****         Left_Eyebrow_SetInterruptMode(Left_Eyebrow_INIT_INTERRUPTS_MODE);
 155:Generated_Source\PSoC5/Left_Eyebrow.c ****     #endif /* (Left_Eyebrow_UseStatus || Left_Eyebrow_UsingFixedFunction) */
 156:Generated_Source\PSoC5/Left_Eyebrow.c **** 
 157:Generated_Source\PSoC5/Left_Eyebrow.c ****     #if (Left_Eyebrow_UsingFixedFunction)
 158:Generated_Source\PSoC5/Left_Eyebrow.c ****         /* Globally Enable the Fixed Function Block chosen */
 159:Generated_Source\PSoC5/Left_Eyebrow.c ****         Left_Eyebrow_GLOBAL_ENABLE |= Left_Eyebrow_BLOCK_EN_MASK;
 160:Generated_Source\PSoC5/Left_Eyebrow.c ****         /* Set the Interrupt source to come from the status register */
 161:Generated_Source\PSoC5/Left_Eyebrow.c ****         Left_Eyebrow_CONTROL2 |= Left_Eyebrow_CTRL2_IRQ_SEL;
 162:Generated_Source\PSoC5/Left_Eyebrow.c ****     #else
 163:Generated_Source\PSoC5/Left_Eyebrow.c ****         #if(Left_Eyebrow_UseStatus)
 164:Generated_Source\PSoC5/Left_Eyebrow.c **** 
 165:Generated_Source\PSoC5/Left_Eyebrow.c ****             /* CyEnterCriticalRegion and CyExitCriticalRegion are used to mark following region cri
 166:Generated_Source\PSoC5/Left_Eyebrow.c ****             /* Enter Critical Region*/
 167:Generated_Source\PSoC5/Left_Eyebrow.c ****             Left_Eyebrow_interruptState = CyEnterCriticalSection();
 168:Generated_Source\PSoC5/Left_Eyebrow.c ****             /* Use the interrupt output of the status register for IRQ output */
 169:Generated_Source\PSoC5/Left_Eyebrow.c ****             Left_Eyebrow_STATUS_AUX_CTRL |= Left_Eyebrow_STATUS_ACTL_INT_EN_MASK;
 170:Generated_Source\PSoC5/Left_Eyebrow.c **** 
 171:Generated_Source\PSoC5/Left_Eyebrow.c ****              /* Exit Critical Region*/
 172:Generated_Source\PSoC5/Left_Eyebrow.c ****             CyExitCriticalSection(Left_Eyebrow_interruptState);
 173:Generated_Source\PSoC5/Left_Eyebrow.c **** 
 174:Generated_Source\PSoC5/Left_Eyebrow.c ****             /* Clear the FIFO to enable the Left_Eyebrow_STATUS_FIFOFULL
 175:Generated_Source\PSoC5/Left_Eyebrow.c ****                    bit to be set on FIFO full. */
 176:Generated_Source\PSoC5/Left_Eyebrow.c ****             Left_Eyebrow_ClearFIFO();
 177:Generated_Source\PSoC5/Left_Eyebrow.c ****         #endif /* (Left_Eyebrow_UseStatus) */
 178:Generated_Source\PSoC5/Left_Eyebrow.c ****     #endif /* (Left_Eyebrow_UsingFixedFunction) */
 179:Generated_Source\PSoC5/Left_Eyebrow.c **** }
 180:Generated_Source\PSoC5/Left_Eyebrow.c **** 
 181:Generated_Source\PSoC5/Left_Eyebrow.c **** 
 182:Generated_Source\PSoC5/Left_Eyebrow.c **** /*******************************************************************************
 183:Generated_Source\PSoC5/Left_Eyebrow.c **** * Function Name: Left_Eyebrow_Enable
 184:Generated_Source\PSoC5/Left_Eyebrow.c **** ********************************************************************************
 185:Generated_Source\PSoC5/Left_Eyebrow.c **** *
 186:Generated_Source\PSoC5/Left_Eyebrow.c **** * Summary:
 187:Generated_Source\PSoC5/Left_Eyebrow.c **** *  Enables the PWM block operation
 188:Generated_Source\PSoC5/Left_Eyebrow.c **** *
 189:Generated_Source\PSoC5/Left_Eyebrow.c **** * Parameters:
 190:Generated_Source\PSoC5/Left_Eyebrow.c **** *  None
 191:Generated_Source\PSoC5/Left_Eyebrow.c **** *
 192:Generated_Source\PSoC5/Left_Eyebrow.c **** * Return:
 193:Generated_Source\PSoC5/Left_Eyebrow.c **** *  None
 194:Generated_Source\PSoC5/Left_Eyebrow.c **** *
 195:Generated_Source\PSoC5/Left_Eyebrow.c **** * Side Effects:
 196:Generated_Source\PSoC5/Left_Eyebrow.c **** *  This works only if software enable mode is chosen
 197:Generated_Source\PSoC5/Left_Eyebrow.c **** *
 198:Generated_Source\PSoC5/Left_Eyebrow.c **** *******************************************************************************/
 199:Generated_Source\PSoC5/Left_Eyebrow.c **** void Left_Eyebrow_Enable(void) 
 200:Generated_Source\PSoC5/Left_Eyebrow.c **** {
  28              		.loc 1 200 0
ARM GAS  C:\Users\vivek\AppData\Local\Temp\cc6zFIJh.s 			page 5


  29              		.cfi_startproc
  30              		@ args = 0, pretend = 0, frame = 0
  31              		@ frame_needed = 0, uses_anonymous_args = 0
  32              		@ link register save eliminated.
 201:Generated_Source\PSoC5/Left_Eyebrow.c ****     /* Globally Enable the Fixed Function Block chosen */
 202:Generated_Source\PSoC5/Left_Eyebrow.c ****     #if (Left_Eyebrow_UsingFixedFunction)
 203:Generated_Source\PSoC5/Left_Eyebrow.c ****         Left_Eyebrow_GLOBAL_ENABLE |= Left_Eyebrow_BLOCK_EN_MASK;
 204:Generated_Source\PSoC5/Left_Eyebrow.c ****         Left_Eyebrow_GLOBAL_STBY_ENABLE |= Left_Eyebrow_BLOCK_STBY_EN_MASK;
 205:Generated_Source\PSoC5/Left_Eyebrow.c ****     #endif /* (Left_Eyebrow_UsingFixedFunction) */
 206:Generated_Source\PSoC5/Left_Eyebrow.c **** 
 207:Generated_Source\PSoC5/Left_Eyebrow.c ****     /* Enable the PWM from the control register  */
 208:Generated_Source\PSoC5/Left_Eyebrow.c ****     #if (Left_Eyebrow_UseControl || Left_Eyebrow_UsingFixedFunction)
 209:Generated_Source\PSoC5/Left_Eyebrow.c ****         Left_Eyebrow_CONTROL |= Left_Eyebrow_CTRL_ENABLE;
  33              		.loc 1 209 0
  34 0000 024A     		ldr	r2, .L2
  35 0002 1378     		ldrb	r3, [r2]	@ zero_extendqisi2
  36 0004 43F08003 		orr	r3, r3, #128
  37 0008 1370     		strb	r3, [r2]
  38 000a 7047     		bx	lr
  39              	.L3:
  40              		.align	2
  41              	.L2:
  42 000c 73640040 		.word	1073767539
  43              		.cfi_endproc
  44              	.LFE2:
  45              		.size	Left_Eyebrow_Enable, .-Left_Eyebrow_Enable
  46              		.section	.text.Left_Eyebrow_Stop,"ax",%progbits
  47              		.align	1
  48              		.global	Left_Eyebrow_Stop
  49              		.thumb
  50              		.thumb_func
  51              		.type	Left_Eyebrow_Stop, %function
  52              	Left_Eyebrow_Stop:
  53              	.LFB3:
 210:Generated_Source\PSoC5/Left_Eyebrow.c ****     #endif /* (Left_Eyebrow_UseControl || Left_Eyebrow_UsingFixedFunction) */
 211:Generated_Source\PSoC5/Left_Eyebrow.c **** }
 212:Generated_Source\PSoC5/Left_Eyebrow.c **** 
 213:Generated_Source\PSoC5/Left_Eyebrow.c **** 
 214:Generated_Source\PSoC5/Left_Eyebrow.c **** /*******************************************************************************
 215:Generated_Source\PSoC5/Left_Eyebrow.c **** * Function Name: Left_Eyebrow_Stop
 216:Generated_Source\PSoC5/Left_Eyebrow.c **** ********************************************************************************
 217:Generated_Source\PSoC5/Left_Eyebrow.c **** *
 218:Generated_Source\PSoC5/Left_Eyebrow.c **** * Summary:
 219:Generated_Source\PSoC5/Left_Eyebrow.c **** *  The stop function halts the PWM, but does not change any modes or disable
 220:Generated_Source\PSoC5/Left_Eyebrow.c **** *  interrupts.
 221:Generated_Source\PSoC5/Left_Eyebrow.c **** *
 222:Generated_Source\PSoC5/Left_Eyebrow.c **** * Parameters:
 223:Generated_Source\PSoC5/Left_Eyebrow.c **** *  None
 224:Generated_Source\PSoC5/Left_Eyebrow.c **** *
 225:Generated_Source\PSoC5/Left_Eyebrow.c **** * Return:
 226:Generated_Source\PSoC5/Left_Eyebrow.c **** *  None
 227:Generated_Source\PSoC5/Left_Eyebrow.c **** *
 228:Generated_Source\PSoC5/Left_Eyebrow.c **** * Side Effects:
 229:Generated_Source\PSoC5/Left_Eyebrow.c **** *  If the Enable mode is set to Hardware only then this function
 230:Generated_Source\PSoC5/Left_Eyebrow.c **** *  has no effect on the operation of the PWM
 231:Generated_Source\PSoC5/Left_Eyebrow.c **** *
 232:Generated_Source\PSoC5/Left_Eyebrow.c **** *******************************************************************************/
ARM GAS  C:\Users\vivek\AppData\Local\Temp\cc6zFIJh.s 			page 6


 233:Generated_Source\PSoC5/Left_Eyebrow.c **** void Left_Eyebrow_Stop(void) 
 234:Generated_Source\PSoC5/Left_Eyebrow.c **** {
  54              		.loc 1 234 0
  55              		.cfi_startproc
  56              		@ args = 0, pretend = 0, frame = 0
  57              		@ frame_needed = 0, uses_anonymous_args = 0
  58              		@ link register save eliminated.
 235:Generated_Source\PSoC5/Left_Eyebrow.c ****     #if (Left_Eyebrow_UseControl || Left_Eyebrow_UsingFixedFunction)
 236:Generated_Source\PSoC5/Left_Eyebrow.c ****         Left_Eyebrow_CONTROL &= ((uint8)(~Left_Eyebrow_CTRL_ENABLE));
  59              		.loc 1 236 0
  60 0000 024A     		ldr	r2, .L5
  61 0002 1378     		ldrb	r3, [r2]	@ zero_extendqisi2
  62 0004 03F07F03 		and	r3, r3, #127
  63 0008 1370     		strb	r3, [r2]
  64 000a 7047     		bx	lr
  65              	.L6:
  66              		.align	2
  67              	.L5:
  68 000c 73640040 		.word	1073767539
  69              		.cfi_endproc
  70              	.LFE3:
  71              		.size	Left_Eyebrow_Stop, .-Left_Eyebrow_Stop
  72              		.section	.text.Left_Eyebrow_WriteCounter,"ax",%progbits
  73              		.align	1
  74              		.global	Left_Eyebrow_WriteCounter
  75              		.thumb
  76              		.thumb_func
  77              		.type	Left_Eyebrow_WriteCounter, %function
  78              	Left_Eyebrow_WriteCounter:
  79              	.LFB4:
 237:Generated_Source\PSoC5/Left_Eyebrow.c ****     #endif /* (Left_Eyebrow_UseControl || Left_Eyebrow_UsingFixedFunction) */
 238:Generated_Source\PSoC5/Left_Eyebrow.c **** 
 239:Generated_Source\PSoC5/Left_Eyebrow.c ****     /* Globally disable the Fixed Function Block chosen */
 240:Generated_Source\PSoC5/Left_Eyebrow.c ****     #if (Left_Eyebrow_UsingFixedFunction)
 241:Generated_Source\PSoC5/Left_Eyebrow.c ****         Left_Eyebrow_GLOBAL_ENABLE &= ((uint8)(~Left_Eyebrow_BLOCK_EN_MASK));
 242:Generated_Source\PSoC5/Left_Eyebrow.c ****         Left_Eyebrow_GLOBAL_STBY_ENABLE &= ((uint8)(~Left_Eyebrow_BLOCK_STBY_EN_MASK));
 243:Generated_Source\PSoC5/Left_Eyebrow.c ****     #endif /* (Left_Eyebrow_UsingFixedFunction) */
 244:Generated_Source\PSoC5/Left_Eyebrow.c **** }
 245:Generated_Source\PSoC5/Left_Eyebrow.c **** 
 246:Generated_Source\PSoC5/Left_Eyebrow.c **** #if (Left_Eyebrow_UseOneCompareMode)
 247:Generated_Source\PSoC5/Left_Eyebrow.c ****     #if (Left_Eyebrow_CompareMode1SW)
 248:Generated_Source\PSoC5/Left_Eyebrow.c **** 
 249:Generated_Source\PSoC5/Left_Eyebrow.c **** 
 250:Generated_Source\PSoC5/Left_Eyebrow.c ****         /*******************************************************************************
 251:Generated_Source\PSoC5/Left_Eyebrow.c ****         * Function Name: Left_Eyebrow_SetCompareMode
 252:Generated_Source\PSoC5/Left_Eyebrow.c ****         ********************************************************************************
 253:Generated_Source\PSoC5/Left_Eyebrow.c ****         *
 254:Generated_Source\PSoC5/Left_Eyebrow.c ****         * Summary:
 255:Generated_Source\PSoC5/Left_Eyebrow.c ****         *  This function writes the Compare Mode for the pwm output when in Dither mode,
 256:Generated_Source\PSoC5/Left_Eyebrow.c ****         *  Center Align Mode or One Output Mode.
 257:Generated_Source\PSoC5/Left_Eyebrow.c ****         *
 258:Generated_Source\PSoC5/Left_Eyebrow.c ****         * Parameters:
 259:Generated_Source\PSoC5/Left_Eyebrow.c ****         *  comparemode:  The new compare mode for the PWM output. Use the compare types
 260:Generated_Source\PSoC5/Left_Eyebrow.c ****         *                defined in the H file as input arguments.
 261:Generated_Source\PSoC5/Left_Eyebrow.c ****         *
 262:Generated_Source\PSoC5/Left_Eyebrow.c ****         * Return:
 263:Generated_Source\PSoC5/Left_Eyebrow.c ****         *  None
ARM GAS  C:\Users\vivek\AppData\Local\Temp\cc6zFIJh.s 			page 7


 264:Generated_Source\PSoC5/Left_Eyebrow.c ****         *
 265:Generated_Source\PSoC5/Left_Eyebrow.c ****         *******************************************************************************/
 266:Generated_Source\PSoC5/Left_Eyebrow.c ****         void Left_Eyebrow_SetCompareMode(uint8 comparemode) 
 267:Generated_Source\PSoC5/Left_Eyebrow.c ****         {
 268:Generated_Source\PSoC5/Left_Eyebrow.c ****             #if(Left_Eyebrow_UsingFixedFunction)
 269:Generated_Source\PSoC5/Left_Eyebrow.c **** 
 270:Generated_Source\PSoC5/Left_Eyebrow.c ****                 #if(0 != Left_Eyebrow_CTRL_CMPMODE1_SHIFT)
 271:Generated_Source\PSoC5/Left_Eyebrow.c ****                     uint8 comparemodemasked = ((uint8)((uint8)comparemode << Left_Eyebrow_CTRL_CMPM
 272:Generated_Source\PSoC5/Left_Eyebrow.c ****                 #else
 273:Generated_Source\PSoC5/Left_Eyebrow.c ****                     uint8 comparemodemasked = comparemode;
 274:Generated_Source\PSoC5/Left_Eyebrow.c ****                 #endif /* (0 != Left_Eyebrow_CTRL_CMPMODE1_SHIFT) */
 275:Generated_Source\PSoC5/Left_Eyebrow.c **** 
 276:Generated_Source\PSoC5/Left_Eyebrow.c ****                 Left_Eyebrow_CONTROL3 &= ((uint8)(~Left_Eyebrow_CTRL_CMPMODE1_MASK)); /*Clear Exist
 277:Generated_Source\PSoC5/Left_Eyebrow.c ****                 Left_Eyebrow_CONTROL3 |= comparemodemasked;
 278:Generated_Source\PSoC5/Left_Eyebrow.c **** 
 279:Generated_Source\PSoC5/Left_Eyebrow.c ****             #elif (Left_Eyebrow_UseControl)
 280:Generated_Source\PSoC5/Left_Eyebrow.c **** 
 281:Generated_Source\PSoC5/Left_Eyebrow.c ****                 #if(0 != Left_Eyebrow_CTRL_CMPMODE1_SHIFT)
 282:Generated_Source\PSoC5/Left_Eyebrow.c ****                     uint8 comparemode1masked = ((uint8)((uint8)comparemode << Left_Eyebrow_CTRL_CMP
 283:Generated_Source\PSoC5/Left_Eyebrow.c ****                                                 Left_Eyebrow_CTRL_CMPMODE1_MASK;
 284:Generated_Source\PSoC5/Left_Eyebrow.c ****                 #else
 285:Generated_Source\PSoC5/Left_Eyebrow.c ****                     uint8 comparemode1masked = comparemode & Left_Eyebrow_CTRL_CMPMODE1_MASK;
 286:Generated_Source\PSoC5/Left_Eyebrow.c ****                 #endif /* (0 != Left_Eyebrow_CTRL_CMPMODE1_SHIFT) */
 287:Generated_Source\PSoC5/Left_Eyebrow.c **** 
 288:Generated_Source\PSoC5/Left_Eyebrow.c ****                 #if(0 != Left_Eyebrow_CTRL_CMPMODE2_SHIFT)
 289:Generated_Source\PSoC5/Left_Eyebrow.c ****                     uint8 comparemode2masked = ((uint8)((uint8)comparemode << Left_Eyebrow_CTRL_CMP
 290:Generated_Source\PSoC5/Left_Eyebrow.c ****                                                Left_Eyebrow_CTRL_CMPMODE2_MASK;
 291:Generated_Source\PSoC5/Left_Eyebrow.c ****                 #else
 292:Generated_Source\PSoC5/Left_Eyebrow.c ****                     uint8 comparemode2masked = comparemode & Left_Eyebrow_CTRL_CMPMODE2_MASK;
 293:Generated_Source\PSoC5/Left_Eyebrow.c ****                 #endif /* (0 != Left_Eyebrow_CTRL_CMPMODE2_SHIFT) */
 294:Generated_Source\PSoC5/Left_Eyebrow.c **** 
 295:Generated_Source\PSoC5/Left_Eyebrow.c ****                 /*Clear existing mode */
 296:Generated_Source\PSoC5/Left_Eyebrow.c ****                 Left_Eyebrow_CONTROL &= ((uint8)(~(Left_Eyebrow_CTRL_CMPMODE1_MASK |
 297:Generated_Source\PSoC5/Left_Eyebrow.c ****                                             Left_Eyebrow_CTRL_CMPMODE2_MASK)));
 298:Generated_Source\PSoC5/Left_Eyebrow.c ****                 Left_Eyebrow_CONTROL |= (comparemode1masked | comparemode2masked);
 299:Generated_Source\PSoC5/Left_Eyebrow.c **** 
 300:Generated_Source\PSoC5/Left_Eyebrow.c ****             #else
 301:Generated_Source\PSoC5/Left_Eyebrow.c ****                 uint8 temp = comparemode;
 302:Generated_Source\PSoC5/Left_Eyebrow.c ****             #endif /* (Left_Eyebrow_UsingFixedFunction) */
 303:Generated_Source\PSoC5/Left_Eyebrow.c ****         }
 304:Generated_Source\PSoC5/Left_Eyebrow.c ****     #endif /* Left_Eyebrow_CompareMode1SW */
 305:Generated_Source\PSoC5/Left_Eyebrow.c **** 
 306:Generated_Source\PSoC5/Left_Eyebrow.c **** #else /* UseOneCompareMode */
 307:Generated_Source\PSoC5/Left_Eyebrow.c **** 
 308:Generated_Source\PSoC5/Left_Eyebrow.c ****     #if (Left_Eyebrow_CompareMode1SW)
 309:Generated_Source\PSoC5/Left_Eyebrow.c **** 
 310:Generated_Source\PSoC5/Left_Eyebrow.c **** 
 311:Generated_Source\PSoC5/Left_Eyebrow.c ****         /*******************************************************************************
 312:Generated_Source\PSoC5/Left_Eyebrow.c ****         * Function Name: Left_Eyebrow_SetCompareMode1
 313:Generated_Source\PSoC5/Left_Eyebrow.c ****         ********************************************************************************
 314:Generated_Source\PSoC5/Left_Eyebrow.c ****         *
 315:Generated_Source\PSoC5/Left_Eyebrow.c ****         * Summary:
 316:Generated_Source\PSoC5/Left_Eyebrow.c ****         *  This function writes the Compare Mode for the pwm or pwm1 output
 317:Generated_Source\PSoC5/Left_Eyebrow.c ****         *
 318:Generated_Source\PSoC5/Left_Eyebrow.c ****         * Parameters:
 319:Generated_Source\PSoC5/Left_Eyebrow.c ****         *  comparemode:  The new compare mode for the PWM output. Use the compare types
 320:Generated_Source\PSoC5/Left_Eyebrow.c ****         *                defined in the H file as input arguments.
ARM GAS  C:\Users\vivek\AppData\Local\Temp\cc6zFIJh.s 			page 8


 321:Generated_Source\PSoC5/Left_Eyebrow.c ****         *
 322:Generated_Source\PSoC5/Left_Eyebrow.c ****         * Return:
 323:Generated_Source\PSoC5/Left_Eyebrow.c ****         *  None
 324:Generated_Source\PSoC5/Left_Eyebrow.c ****         *
 325:Generated_Source\PSoC5/Left_Eyebrow.c ****         *******************************************************************************/
 326:Generated_Source\PSoC5/Left_Eyebrow.c ****         void Left_Eyebrow_SetCompareMode1(uint8 comparemode) 
 327:Generated_Source\PSoC5/Left_Eyebrow.c ****         {
 328:Generated_Source\PSoC5/Left_Eyebrow.c ****             #if(0 != Left_Eyebrow_CTRL_CMPMODE1_SHIFT)
 329:Generated_Source\PSoC5/Left_Eyebrow.c ****                 uint8 comparemodemasked = ((uint8)((uint8)comparemode << Left_Eyebrow_CTRL_CMPMODE1
 330:Generated_Source\PSoC5/Left_Eyebrow.c ****                                            Left_Eyebrow_CTRL_CMPMODE1_MASK;
 331:Generated_Source\PSoC5/Left_Eyebrow.c ****             #else
 332:Generated_Source\PSoC5/Left_Eyebrow.c ****                 uint8 comparemodemasked = comparemode & Left_Eyebrow_CTRL_CMPMODE1_MASK;
 333:Generated_Source\PSoC5/Left_Eyebrow.c ****             #endif /* (0 != Left_Eyebrow_CTRL_CMPMODE1_SHIFT) */
 334:Generated_Source\PSoC5/Left_Eyebrow.c **** 
 335:Generated_Source\PSoC5/Left_Eyebrow.c ****             #if (Left_Eyebrow_UseControl)
 336:Generated_Source\PSoC5/Left_Eyebrow.c ****                 Left_Eyebrow_CONTROL &= ((uint8)(~Left_Eyebrow_CTRL_CMPMODE1_MASK)); /*Clear existi
 337:Generated_Source\PSoC5/Left_Eyebrow.c ****                 Left_Eyebrow_CONTROL |= comparemodemasked;
 338:Generated_Source\PSoC5/Left_Eyebrow.c ****             #endif /* (Left_Eyebrow_UseControl) */
 339:Generated_Source\PSoC5/Left_Eyebrow.c ****         }
 340:Generated_Source\PSoC5/Left_Eyebrow.c ****     #endif /* Left_Eyebrow_CompareMode1SW */
 341:Generated_Source\PSoC5/Left_Eyebrow.c **** 
 342:Generated_Source\PSoC5/Left_Eyebrow.c **** #if (Left_Eyebrow_CompareMode2SW)
 343:Generated_Source\PSoC5/Left_Eyebrow.c **** 
 344:Generated_Source\PSoC5/Left_Eyebrow.c **** 
 345:Generated_Source\PSoC5/Left_Eyebrow.c ****     /*******************************************************************************
 346:Generated_Source\PSoC5/Left_Eyebrow.c ****     * Function Name: Left_Eyebrow_SetCompareMode2
 347:Generated_Source\PSoC5/Left_Eyebrow.c ****     ********************************************************************************
 348:Generated_Source\PSoC5/Left_Eyebrow.c ****     *
 349:Generated_Source\PSoC5/Left_Eyebrow.c ****     * Summary:
 350:Generated_Source\PSoC5/Left_Eyebrow.c ****     *  This function writes the Compare Mode for the pwm or pwm2 output
 351:Generated_Source\PSoC5/Left_Eyebrow.c ****     *
 352:Generated_Source\PSoC5/Left_Eyebrow.c ****     * Parameters:
 353:Generated_Source\PSoC5/Left_Eyebrow.c ****     *  comparemode:  The new compare mode for the PWM output. Use the compare types
 354:Generated_Source\PSoC5/Left_Eyebrow.c ****     *                defined in the H file as input arguments.
 355:Generated_Source\PSoC5/Left_Eyebrow.c ****     *
 356:Generated_Source\PSoC5/Left_Eyebrow.c ****     * Return:
 357:Generated_Source\PSoC5/Left_Eyebrow.c ****     *  None
 358:Generated_Source\PSoC5/Left_Eyebrow.c ****     *
 359:Generated_Source\PSoC5/Left_Eyebrow.c ****     *******************************************************************************/
 360:Generated_Source\PSoC5/Left_Eyebrow.c ****     void Left_Eyebrow_SetCompareMode2(uint8 comparemode) 
 361:Generated_Source\PSoC5/Left_Eyebrow.c ****     {
 362:Generated_Source\PSoC5/Left_Eyebrow.c **** 
 363:Generated_Source\PSoC5/Left_Eyebrow.c ****         #if(0 != Left_Eyebrow_CTRL_CMPMODE2_SHIFT)
 364:Generated_Source\PSoC5/Left_Eyebrow.c ****             uint8 comparemodemasked = ((uint8)((uint8)comparemode << Left_Eyebrow_CTRL_CMPMODE2_SHI
 365:Generated_Source\PSoC5/Left_Eyebrow.c ****                                                  Left_Eyebrow_CTRL_CMPMODE2_MASK;
 366:Generated_Source\PSoC5/Left_Eyebrow.c ****         #else
 367:Generated_Source\PSoC5/Left_Eyebrow.c ****             uint8 comparemodemasked = comparemode & Left_Eyebrow_CTRL_CMPMODE2_MASK;
 368:Generated_Source\PSoC5/Left_Eyebrow.c ****         #endif /* (0 != Left_Eyebrow_CTRL_CMPMODE2_SHIFT) */
 369:Generated_Source\PSoC5/Left_Eyebrow.c **** 
 370:Generated_Source\PSoC5/Left_Eyebrow.c ****         #if (Left_Eyebrow_UseControl)
 371:Generated_Source\PSoC5/Left_Eyebrow.c ****             Left_Eyebrow_CONTROL &= ((uint8)(~Left_Eyebrow_CTRL_CMPMODE2_MASK)); /*Clear existing m
 372:Generated_Source\PSoC5/Left_Eyebrow.c ****             Left_Eyebrow_CONTROL |= comparemodemasked;
 373:Generated_Source\PSoC5/Left_Eyebrow.c ****         #endif /* (Left_Eyebrow_UseControl) */
 374:Generated_Source\PSoC5/Left_Eyebrow.c ****     }
 375:Generated_Source\PSoC5/Left_Eyebrow.c ****     #endif /*Left_Eyebrow_CompareMode2SW */
 376:Generated_Source\PSoC5/Left_Eyebrow.c **** 
 377:Generated_Source\PSoC5/Left_Eyebrow.c **** #endif /* UseOneCompareMode */
ARM GAS  C:\Users\vivek\AppData\Local\Temp\cc6zFIJh.s 			page 9


 378:Generated_Source\PSoC5/Left_Eyebrow.c **** 
 379:Generated_Source\PSoC5/Left_Eyebrow.c **** 
 380:Generated_Source\PSoC5/Left_Eyebrow.c **** #if (!Left_Eyebrow_UsingFixedFunction)
 381:Generated_Source\PSoC5/Left_Eyebrow.c **** 
 382:Generated_Source\PSoC5/Left_Eyebrow.c **** 
 383:Generated_Source\PSoC5/Left_Eyebrow.c ****     /*******************************************************************************
 384:Generated_Source\PSoC5/Left_Eyebrow.c ****     * Function Name: Left_Eyebrow_WriteCounter
 385:Generated_Source\PSoC5/Left_Eyebrow.c ****     ********************************************************************************
 386:Generated_Source\PSoC5/Left_Eyebrow.c ****     *
 387:Generated_Source\PSoC5/Left_Eyebrow.c ****     * Summary:
 388:Generated_Source\PSoC5/Left_Eyebrow.c ****     *  Writes a new counter value directly to the counter register. This will be
 389:Generated_Source\PSoC5/Left_Eyebrow.c ****     *  implemented for that currently running period and only that period. This API
 390:Generated_Source\PSoC5/Left_Eyebrow.c ****     *  is valid only for UDB implementation and not available for fixed function
 391:Generated_Source\PSoC5/Left_Eyebrow.c ****     *  PWM implementation.
 392:Generated_Source\PSoC5/Left_Eyebrow.c ****     *
 393:Generated_Source\PSoC5/Left_Eyebrow.c ****     * Parameters:
 394:Generated_Source\PSoC5/Left_Eyebrow.c ****     *  counter:  The period new period counter value.
 395:Generated_Source\PSoC5/Left_Eyebrow.c ****     *
 396:Generated_Source\PSoC5/Left_Eyebrow.c ****     * Return:
 397:Generated_Source\PSoC5/Left_Eyebrow.c ****     *  None
 398:Generated_Source\PSoC5/Left_Eyebrow.c ****     *
 399:Generated_Source\PSoC5/Left_Eyebrow.c ****     * Side Effects:
 400:Generated_Source\PSoC5/Left_Eyebrow.c ****     *  The PWM Period will be reloaded when a counter value will be a zero
 401:Generated_Source\PSoC5/Left_Eyebrow.c ****     *
 402:Generated_Source\PSoC5/Left_Eyebrow.c ****     *******************************************************************************/
 403:Generated_Source\PSoC5/Left_Eyebrow.c ****     void Left_Eyebrow_WriteCounter(uint16 counter) \
 404:Generated_Source\PSoC5/Left_Eyebrow.c ****                                        
 405:Generated_Source\PSoC5/Left_Eyebrow.c ****     {
  80              		.loc 1 405 0
  81              		.cfi_startproc
  82              		@ args = 0, pretend = 0, frame = 0
  83              		@ frame_needed = 0, uses_anonymous_args = 0
  84              		@ link register save eliminated.
  85              	.LVL0:
 406:Generated_Source\PSoC5/Left_Eyebrow.c ****         CY_SET_REG16(Left_Eyebrow_COUNTER_LSB_PTR, counter);
  86              		.loc 1 406 0
  87 0000 014B     		ldr	r3, .L8
  88 0002 1880     		strh	r0, [r3]	@ movhi
  89 0004 7047     		bx	lr
  90              	.L9:
  91 0006 00BF     		.align	2
  92              	.L8:
  93 0008 04680040 		.word	1073768452
  94              		.cfi_endproc
  95              	.LFE4:
  96              		.size	Left_Eyebrow_WriteCounter, .-Left_Eyebrow_WriteCounter
  97              		.section	.text.Left_Eyebrow_ReadCounter,"ax",%progbits
  98              		.align	1
  99              		.global	Left_Eyebrow_ReadCounter
 100              		.thumb
 101              		.thumb_func
 102              		.type	Left_Eyebrow_ReadCounter, %function
 103              	Left_Eyebrow_ReadCounter:
 104              	.LFB5:
 407:Generated_Source\PSoC5/Left_Eyebrow.c ****     }
 408:Generated_Source\PSoC5/Left_Eyebrow.c **** 
 409:Generated_Source\PSoC5/Left_Eyebrow.c **** 
ARM GAS  C:\Users\vivek\AppData\Local\Temp\cc6zFIJh.s 			page 10


 410:Generated_Source\PSoC5/Left_Eyebrow.c ****     /*******************************************************************************
 411:Generated_Source\PSoC5/Left_Eyebrow.c ****     * Function Name: Left_Eyebrow_ReadCounter
 412:Generated_Source\PSoC5/Left_Eyebrow.c ****     ********************************************************************************
 413:Generated_Source\PSoC5/Left_Eyebrow.c ****     *
 414:Generated_Source\PSoC5/Left_Eyebrow.c ****     * Summary:
 415:Generated_Source\PSoC5/Left_Eyebrow.c ****     *  This function returns the current value of the counter.  It doesn't matter
 416:Generated_Source\PSoC5/Left_Eyebrow.c ****     *  if the counter is enabled or running.
 417:Generated_Source\PSoC5/Left_Eyebrow.c ****     *
 418:Generated_Source\PSoC5/Left_Eyebrow.c ****     * Parameters:
 419:Generated_Source\PSoC5/Left_Eyebrow.c ****     *  None
 420:Generated_Source\PSoC5/Left_Eyebrow.c ****     *
 421:Generated_Source\PSoC5/Left_Eyebrow.c ****     * Return:
 422:Generated_Source\PSoC5/Left_Eyebrow.c ****     *  The current value of the counter.
 423:Generated_Source\PSoC5/Left_Eyebrow.c ****     *
 424:Generated_Source\PSoC5/Left_Eyebrow.c ****     *******************************************************************************/
 425:Generated_Source\PSoC5/Left_Eyebrow.c ****     uint16 Left_Eyebrow_ReadCounter(void) 
 426:Generated_Source\PSoC5/Left_Eyebrow.c ****     {
 105              		.loc 1 426 0
 106              		.cfi_startproc
 107              		@ args = 0, pretend = 0, frame = 0
 108              		@ frame_needed = 0, uses_anonymous_args = 0
 109              		@ link register save eliminated.
 427:Generated_Source\PSoC5/Left_Eyebrow.c ****         /* Force capture by reading Accumulator */
 428:Generated_Source\PSoC5/Left_Eyebrow.c ****         /* Must first do a software capture to be able to read the counter */
 429:Generated_Source\PSoC5/Left_Eyebrow.c ****         /* It is up to the user code to make sure there isn't already captured data in the FIFO */
 430:Generated_Source\PSoC5/Left_Eyebrow.c ****           (void)CY_GET_REG8(Left_Eyebrow_COUNTERCAP_LSB_PTR_8BIT);
 110              		.loc 1 430 0
 111 0000 024B     		ldr	r3, .L11
 112 0002 1B78     		ldrb	r3, [r3]	@ zero_extendqisi2
 431:Generated_Source\PSoC5/Left_Eyebrow.c **** 
 432:Generated_Source\PSoC5/Left_Eyebrow.c ****         /* Read the data from the FIFO */
 433:Generated_Source\PSoC5/Left_Eyebrow.c ****         return (CY_GET_REG16(Left_Eyebrow_CAPTURE_LSB_PTR));
 113              		.loc 1 433 0
 114 0004 024B     		ldr	r3, .L11+4
 115 0006 1888     		ldrh	r0, [r3]
 434:Generated_Source\PSoC5/Left_Eyebrow.c ****     }
 116              		.loc 1 434 0
 117 0008 80B2     		uxth	r0, r0
 118 000a 7047     		bx	lr
 119              	.L12:
 120              		.align	2
 121              	.L11:
 122 000c 12640040 		.word	1073767442
 123 0010 A4680040 		.word	1073768612
 124              		.cfi_endproc
 125              	.LFE5:
 126              		.size	Left_Eyebrow_ReadCounter, .-Left_Eyebrow_ReadCounter
 127              		.section	.text.Left_Eyebrow_ClearFIFO,"ax",%progbits
 128              		.align	1
 129              		.global	Left_Eyebrow_ClearFIFO
 130              		.thumb
 131              		.thumb_func
 132              		.type	Left_Eyebrow_ClearFIFO, %function
 133              	Left_Eyebrow_ClearFIFO:
 134              	.LFB6:
 435:Generated_Source\PSoC5/Left_Eyebrow.c **** 
 436:Generated_Source\PSoC5/Left_Eyebrow.c ****     #if (Left_Eyebrow_UseStatus)
ARM GAS  C:\Users\vivek\AppData\Local\Temp\cc6zFIJh.s 			page 11


 437:Generated_Source\PSoC5/Left_Eyebrow.c **** 
 438:Generated_Source\PSoC5/Left_Eyebrow.c **** 
 439:Generated_Source\PSoC5/Left_Eyebrow.c ****         /*******************************************************************************
 440:Generated_Source\PSoC5/Left_Eyebrow.c ****         * Function Name: Left_Eyebrow_ClearFIFO
 441:Generated_Source\PSoC5/Left_Eyebrow.c ****         ********************************************************************************
 442:Generated_Source\PSoC5/Left_Eyebrow.c ****         *
 443:Generated_Source\PSoC5/Left_Eyebrow.c ****         * Summary:
 444:Generated_Source\PSoC5/Left_Eyebrow.c ****         *  This function clears all capture data from the capture FIFO
 445:Generated_Source\PSoC5/Left_Eyebrow.c ****         *
 446:Generated_Source\PSoC5/Left_Eyebrow.c ****         * Parameters:
 447:Generated_Source\PSoC5/Left_Eyebrow.c ****         *  None
 448:Generated_Source\PSoC5/Left_Eyebrow.c ****         *
 449:Generated_Source\PSoC5/Left_Eyebrow.c ****         * Return:
 450:Generated_Source\PSoC5/Left_Eyebrow.c ****         *  None
 451:Generated_Source\PSoC5/Left_Eyebrow.c ****         *
 452:Generated_Source\PSoC5/Left_Eyebrow.c ****         *******************************************************************************/
 453:Generated_Source\PSoC5/Left_Eyebrow.c ****         void Left_Eyebrow_ClearFIFO(void) 
 454:Generated_Source\PSoC5/Left_Eyebrow.c ****         {
 135              		.loc 1 454 0
 136              		.cfi_startproc
 137              		@ args = 0, pretend = 0, frame = 0
 138              		@ frame_needed = 0, uses_anonymous_args = 0
 139              		@ link register save eliminated.
 140              	.LBB16:
 141              	.LBB17:
 455:Generated_Source\PSoC5/Left_Eyebrow.c ****             while(0u != (Left_Eyebrow_ReadStatusRegister() & Left_Eyebrow_STATUS_FIFONEMPTY))
 456:Generated_Source\PSoC5/Left_Eyebrow.c ****             {
 457:Generated_Source\PSoC5/Left_Eyebrow.c ****                 (void)Left_Eyebrow_ReadCapture();
 458:Generated_Source\PSoC5/Left_Eyebrow.c ****             }
 459:Generated_Source\PSoC5/Left_Eyebrow.c ****         }
 460:Generated_Source\PSoC5/Left_Eyebrow.c **** 
 461:Generated_Source\PSoC5/Left_Eyebrow.c ****     #endif /* Left_Eyebrow_UseStatus */
 462:Generated_Source\PSoC5/Left_Eyebrow.c **** 
 463:Generated_Source\PSoC5/Left_Eyebrow.c **** #endif /* !Left_Eyebrow_UsingFixedFunction */
 464:Generated_Source\PSoC5/Left_Eyebrow.c **** 
 465:Generated_Source\PSoC5/Left_Eyebrow.c **** 
 466:Generated_Source\PSoC5/Left_Eyebrow.c **** /*******************************************************************************
 467:Generated_Source\PSoC5/Left_Eyebrow.c **** * Function Name: Left_Eyebrow_WritePeriod
 468:Generated_Source\PSoC5/Left_Eyebrow.c **** ********************************************************************************
 469:Generated_Source\PSoC5/Left_Eyebrow.c **** *
 470:Generated_Source\PSoC5/Left_Eyebrow.c **** * Summary:
 471:Generated_Source\PSoC5/Left_Eyebrow.c **** *  This function is used to change the period of the counter.  The new period
 472:Generated_Source\PSoC5/Left_Eyebrow.c **** *  will be loaded the next time terminal count is detected.
 473:Generated_Source\PSoC5/Left_Eyebrow.c **** *
 474:Generated_Source\PSoC5/Left_Eyebrow.c **** * Parameters:
 475:Generated_Source\PSoC5/Left_Eyebrow.c **** *  period:  Period value. May be between 1 and (2^Resolution)-1.  A value of 0
 476:Generated_Source\PSoC5/Left_Eyebrow.c **** *           will result in the counter remaining at zero.
 477:Generated_Source\PSoC5/Left_Eyebrow.c **** *
 478:Generated_Source\PSoC5/Left_Eyebrow.c **** * Return:
 479:Generated_Source\PSoC5/Left_Eyebrow.c **** *  None
 480:Generated_Source\PSoC5/Left_Eyebrow.c **** *
 481:Generated_Source\PSoC5/Left_Eyebrow.c **** *******************************************************************************/
 482:Generated_Source\PSoC5/Left_Eyebrow.c **** void Left_Eyebrow_WritePeriod(uint16 period) 
 483:Generated_Source\PSoC5/Left_Eyebrow.c **** {
 484:Generated_Source\PSoC5/Left_Eyebrow.c ****     #if(Left_Eyebrow_UsingFixedFunction)
 485:Generated_Source\PSoC5/Left_Eyebrow.c ****         CY_SET_REG16(Left_Eyebrow_PERIOD_LSB_PTR, (uint16)period);
 486:Generated_Source\PSoC5/Left_Eyebrow.c ****     #else
ARM GAS  C:\Users\vivek\AppData\Local\Temp\cc6zFIJh.s 			page 12


 487:Generated_Source\PSoC5/Left_Eyebrow.c ****         CY_SET_REG16(Left_Eyebrow_PERIOD_LSB_PTR, period);
 488:Generated_Source\PSoC5/Left_Eyebrow.c ****     #endif /* (Left_Eyebrow_UsingFixedFunction) */
 489:Generated_Source\PSoC5/Left_Eyebrow.c **** }
 490:Generated_Source\PSoC5/Left_Eyebrow.c **** 
 491:Generated_Source\PSoC5/Left_Eyebrow.c **** #if (Left_Eyebrow_UseOneCompareMode)
 492:Generated_Source\PSoC5/Left_Eyebrow.c **** 
 493:Generated_Source\PSoC5/Left_Eyebrow.c **** 
 494:Generated_Source\PSoC5/Left_Eyebrow.c ****     /*******************************************************************************
 495:Generated_Source\PSoC5/Left_Eyebrow.c ****     * Function Name: Left_Eyebrow_WriteCompare
 496:Generated_Source\PSoC5/Left_Eyebrow.c ****     ********************************************************************************
 497:Generated_Source\PSoC5/Left_Eyebrow.c ****     *
 498:Generated_Source\PSoC5/Left_Eyebrow.c ****     * Summary:
 499:Generated_Source\PSoC5/Left_Eyebrow.c ****     *  This funtion is used to change the compare1 value when the PWM is in Dither
 500:Generated_Source\PSoC5/Left_Eyebrow.c ****     *  mode. The compare output will reflect the new value on the next UDB clock.
 501:Generated_Source\PSoC5/Left_Eyebrow.c ****     *  The compare output will be driven high when the present counter value is
 502:Generated_Source\PSoC5/Left_Eyebrow.c ****     *  compared to the compare value based on the compare mode defined in
 503:Generated_Source\PSoC5/Left_Eyebrow.c ****     *  Dither Mode.
 504:Generated_Source\PSoC5/Left_Eyebrow.c ****     *
 505:Generated_Source\PSoC5/Left_Eyebrow.c ****     * Parameters:
 506:Generated_Source\PSoC5/Left_Eyebrow.c ****     *  compare:  New compare value.
 507:Generated_Source\PSoC5/Left_Eyebrow.c ****     *
 508:Generated_Source\PSoC5/Left_Eyebrow.c ****     * Return:
 509:Generated_Source\PSoC5/Left_Eyebrow.c ****     *  None
 510:Generated_Source\PSoC5/Left_Eyebrow.c ****     *
 511:Generated_Source\PSoC5/Left_Eyebrow.c ****     * Side Effects:
 512:Generated_Source\PSoC5/Left_Eyebrow.c ****     *  This function is only available if the PWM mode parameter is set to
 513:Generated_Source\PSoC5/Left_Eyebrow.c ****     *  Dither Mode, Center Aligned Mode or One Output Mode
 514:Generated_Source\PSoC5/Left_Eyebrow.c ****     *
 515:Generated_Source\PSoC5/Left_Eyebrow.c ****     *******************************************************************************/
 516:Generated_Source\PSoC5/Left_Eyebrow.c ****     void Left_Eyebrow_WriteCompare(uint16 compare) \
 517:Generated_Source\PSoC5/Left_Eyebrow.c ****                                        
 518:Generated_Source\PSoC5/Left_Eyebrow.c ****     {
 519:Generated_Source\PSoC5/Left_Eyebrow.c ****         #if(Left_Eyebrow_UsingFixedFunction)
 520:Generated_Source\PSoC5/Left_Eyebrow.c ****             CY_SET_REG16(Left_Eyebrow_COMPARE1_LSB_PTR, (uint16)compare);
 521:Generated_Source\PSoC5/Left_Eyebrow.c ****         #else
 522:Generated_Source\PSoC5/Left_Eyebrow.c ****             CY_SET_REG16(Left_Eyebrow_COMPARE1_LSB_PTR, compare);
 523:Generated_Source\PSoC5/Left_Eyebrow.c ****         #endif /* (Left_Eyebrow_UsingFixedFunction) */
 524:Generated_Source\PSoC5/Left_Eyebrow.c **** 
 525:Generated_Source\PSoC5/Left_Eyebrow.c ****         #if (Left_Eyebrow_PWMMode == Left_Eyebrow__B_PWM__DITHER)
 526:Generated_Source\PSoC5/Left_Eyebrow.c ****             #if(Left_Eyebrow_UsingFixedFunction)
 527:Generated_Source\PSoC5/Left_Eyebrow.c ****                 CY_SET_REG16(Left_Eyebrow_COMPARE2_LSB_PTR, (uint16)(compare + 1u));
 528:Generated_Source\PSoC5/Left_Eyebrow.c ****             #else
 529:Generated_Source\PSoC5/Left_Eyebrow.c ****                 CY_SET_REG16(Left_Eyebrow_COMPARE2_LSB_PTR, (compare + 1u));
 530:Generated_Source\PSoC5/Left_Eyebrow.c ****             #endif /* (Left_Eyebrow_UsingFixedFunction) */
 531:Generated_Source\PSoC5/Left_Eyebrow.c ****         #endif /* (Left_Eyebrow_PWMMode == Left_Eyebrow__B_PWM__DITHER) */
 532:Generated_Source\PSoC5/Left_Eyebrow.c ****     }
 533:Generated_Source\PSoC5/Left_Eyebrow.c **** 
 534:Generated_Source\PSoC5/Left_Eyebrow.c **** 
 535:Generated_Source\PSoC5/Left_Eyebrow.c **** #else
 536:Generated_Source\PSoC5/Left_Eyebrow.c **** 
 537:Generated_Source\PSoC5/Left_Eyebrow.c **** 
 538:Generated_Source\PSoC5/Left_Eyebrow.c ****     /*******************************************************************************
 539:Generated_Source\PSoC5/Left_Eyebrow.c ****     * Function Name: Left_Eyebrow_WriteCompare1
 540:Generated_Source\PSoC5/Left_Eyebrow.c ****     ********************************************************************************
 541:Generated_Source\PSoC5/Left_Eyebrow.c ****     *
 542:Generated_Source\PSoC5/Left_Eyebrow.c ****     * Summary:
 543:Generated_Source\PSoC5/Left_Eyebrow.c ****     *  This funtion is used to change the compare1 value.  The compare output will
ARM GAS  C:\Users\vivek\AppData\Local\Temp\cc6zFIJh.s 			page 13


 544:Generated_Source\PSoC5/Left_Eyebrow.c ****     *  reflect the new value on the next UDB clock.  The compare output will be
 545:Generated_Source\PSoC5/Left_Eyebrow.c ****     *  driven high when the present counter value is less than or less than or
 546:Generated_Source\PSoC5/Left_Eyebrow.c ****     *  equal to the compare register, depending on the mode.
 547:Generated_Source\PSoC5/Left_Eyebrow.c ****     *
 548:Generated_Source\PSoC5/Left_Eyebrow.c ****     * Parameters:
 549:Generated_Source\PSoC5/Left_Eyebrow.c ****     *  compare:  New compare value.
 550:Generated_Source\PSoC5/Left_Eyebrow.c ****     *
 551:Generated_Source\PSoC5/Left_Eyebrow.c ****     * Return:
 552:Generated_Source\PSoC5/Left_Eyebrow.c ****     *  None
 553:Generated_Source\PSoC5/Left_Eyebrow.c ****     *
 554:Generated_Source\PSoC5/Left_Eyebrow.c ****     *******************************************************************************/
 555:Generated_Source\PSoC5/Left_Eyebrow.c ****     void Left_Eyebrow_WriteCompare1(uint16 compare) \
 556:Generated_Source\PSoC5/Left_Eyebrow.c ****                                         
 557:Generated_Source\PSoC5/Left_Eyebrow.c ****     {
 558:Generated_Source\PSoC5/Left_Eyebrow.c ****         #if(Left_Eyebrow_UsingFixedFunction)
 559:Generated_Source\PSoC5/Left_Eyebrow.c ****             CY_SET_REG16(Left_Eyebrow_COMPARE1_LSB_PTR, (uint16)compare);
 560:Generated_Source\PSoC5/Left_Eyebrow.c ****         #else
 561:Generated_Source\PSoC5/Left_Eyebrow.c ****             CY_SET_REG16(Left_Eyebrow_COMPARE1_LSB_PTR, compare);
 562:Generated_Source\PSoC5/Left_Eyebrow.c ****         #endif /* (Left_Eyebrow_UsingFixedFunction) */
 563:Generated_Source\PSoC5/Left_Eyebrow.c ****     }
 564:Generated_Source\PSoC5/Left_Eyebrow.c **** 
 565:Generated_Source\PSoC5/Left_Eyebrow.c **** 
 566:Generated_Source\PSoC5/Left_Eyebrow.c ****     /*******************************************************************************
 567:Generated_Source\PSoC5/Left_Eyebrow.c ****     * Function Name: Left_Eyebrow_WriteCompare2
 568:Generated_Source\PSoC5/Left_Eyebrow.c ****     ********************************************************************************
 569:Generated_Source\PSoC5/Left_Eyebrow.c ****     *
 570:Generated_Source\PSoC5/Left_Eyebrow.c ****     * Summary:
 571:Generated_Source\PSoC5/Left_Eyebrow.c ****     *  This funtion is used to change the compare value, for compare1 output.
 572:Generated_Source\PSoC5/Left_Eyebrow.c ****     *  The compare output will reflect the new value on the next UDB clock.
 573:Generated_Source\PSoC5/Left_Eyebrow.c ****     *  The compare output will be driven high when the present counter value is
 574:Generated_Source\PSoC5/Left_Eyebrow.c ****     *  less than or less than or equal to the compare register, depending on the
 575:Generated_Source\PSoC5/Left_Eyebrow.c ****     *  mode.
 576:Generated_Source\PSoC5/Left_Eyebrow.c ****     *
 577:Generated_Source\PSoC5/Left_Eyebrow.c ****     * Parameters:
 578:Generated_Source\PSoC5/Left_Eyebrow.c ****     *  compare:  New compare value.
 579:Generated_Source\PSoC5/Left_Eyebrow.c ****     *
 580:Generated_Source\PSoC5/Left_Eyebrow.c ****     * Return:
 581:Generated_Source\PSoC5/Left_Eyebrow.c ****     *  None
 582:Generated_Source\PSoC5/Left_Eyebrow.c ****     *
 583:Generated_Source\PSoC5/Left_Eyebrow.c ****     *******************************************************************************/
 584:Generated_Source\PSoC5/Left_Eyebrow.c ****     void Left_Eyebrow_WriteCompare2(uint16 compare) \
 585:Generated_Source\PSoC5/Left_Eyebrow.c ****                                         
 586:Generated_Source\PSoC5/Left_Eyebrow.c ****     {
 587:Generated_Source\PSoC5/Left_Eyebrow.c ****         #if(Left_Eyebrow_UsingFixedFunction)
 588:Generated_Source\PSoC5/Left_Eyebrow.c ****             CY_SET_REG16(Left_Eyebrow_COMPARE2_LSB_PTR, compare);
 589:Generated_Source\PSoC5/Left_Eyebrow.c ****         #else
 590:Generated_Source\PSoC5/Left_Eyebrow.c ****             CY_SET_REG16(Left_Eyebrow_COMPARE2_LSB_PTR, compare);
 591:Generated_Source\PSoC5/Left_Eyebrow.c ****         #endif /* (Left_Eyebrow_UsingFixedFunction) */
 592:Generated_Source\PSoC5/Left_Eyebrow.c ****     }
 593:Generated_Source\PSoC5/Left_Eyebrow.c **** #endif /* UseOneCompareMode */
 594:Generated_Source\PSoC5/Left_Eyebrow.c **** 
 595:Generated_Source\PSoC5/Left_Eyebrow.c **** #if (Left_Eyebrow_DeadBandUsed)
 596:Generated_Source\PSoC5/Left_Eyebrow.c **** 
 597:Generated_Source\PSoC5/Left_Eyebrow.c **** 
 598:Generated_Source\PSoC5/Left_Eyebrow.c ****     /*******************************************************************************
 599:Generated_Source\PSoC5/Left_Eyebrow.c ****     * Function Name: Left_Eyebrow_WriteDeadTime
 600:Generated_Source\PSoC5/Left_Eyebrow.c ****     ********************************************************************************
ARM GAS  C:\Users\vivek\AppData\Local\Temp\cc6zFIJh.s 			page 14


 601:Generated_Source\PSoC5/Left_Eyebrow.c ****     *
 602:Generated_Source\PSoC5/Left_Eyebrow.c ****     * Summary:
 603:Generated_Source\PSoC5/Left_Eyebrow.c ****     *  This function writes the dead-band counts to the corresponding register
 604:Generated_Source\PSoC5/Left_Eyebrow.c ****     *
 605:Generated_Source\PSoC5/Left_Eyebrow.c ****     * Parameters:
 606:Generated_Source\PSoC5/Left_Eyebrow.c ****     *  deadtime:  Number of counts for dead time
 607:Generated_Source\PSoC5/Left_Eyebrow.c ****     *
 608:Generated_Source\PSoC5/Left_Eyebrow.c ****     * Return:
 609:Generated_Source\PSoC5/Left_Eyebrow.c ****     *  None
 610:Generated_Source\PSoC5/Left_Eyebrow.c ****     *
 611:Generated_Source\PSoC5/Left_Eyebrow.c ****     *******************************************************************************/
 612:Generated_Source\PSoC5/Left_Eyebrow.c ****     void Left_Eyebrow_WriteDeadTime(uint8 deadtime) 
 613:Generated_Source\PSoC5/Left_Eyebrow.c ****     {
 614:Generated_Source\PSoC5/Left_Eyebrow.c ****         /* If using the Dead Band 1-255 mode then just write the register */
 615:Generated_Source\PSoC5/Left_Eyebrow.c ****         #if(!Left_Eyebrow_DeadBand2_4)
 616:Generated_Source\PSoC5/Left_Eyebrow.c ****             CY_SET_REG8(Left_Eyebrow_DEADBAND_COUNT_PTR, deadtime);
 617:Generated_Source\PSoC5/Left_Eyebrow.c ****         #else
 618:Generated_Source\PSoC5/Left_Eyebrow.c ****             /* Otherwise the data has to be masked and offset */
 619:Generated_Source\PSoC5/Left_Eyebrow.c ****             /* Clear existing data */
 620:Generated_Source\PSoC5/Left_Eyebrow.c ****             Left_Eyebrow_DEADBAND_COUNT &= ((uint8)(~Left_Eyebrow_DEADBAND_COUNT_MASK));
 621:Generated_Source\PSoC5/Left_Eyebrow.c **** 
 622:Generated_Source\PSoC5/Left_Eyebrow.c ****             /* Set new dead time */
 623:Generated_Source\PSoC5/Left_Eyebrow.c ****             #if(Left_Eyebrow_DEADBAND_COUNT_SHIFT)
 624:Generated_Source\PSoC5/Left_Eyebrow.c ****                 Left_Eyebrow_DEADBAND_COUNT |= ((uint8)((uint8)deadtime << Left_Eyebrow_DEADBAND_CO
 625:Generated_Source\PSoC5/Left_Eyebrow.c ****                                                     Left_Eyebrow_DEADBAND_COUNT_MASK;
 626:Generated_Source\PSoC5/Left_Eyebrow.c ****             #else
 627:Generated_Source\PSoC5/Left_Eyebrow.c ****                 Left_Eyebrow_DEADBAND_COUNT |= deadtime & Left_Eyebrow_DEADBAND_COUNT_MASK;
 628:Generated_Source\PSoC5/Left_Eyebrow.c ****             #endif /* (Left_Eyebrow_DEADBAND_COUNT_SHIFT) */
 629:Generated_Source\PSoC5/Left_Eyebrow.c **** 
 630:Generated_Source\PSoC5/Left_Eyebrow.c ****         #endif /* (!Left_Eyebrow_DeadBand2_4) */
 631:Generated_Source\PSoC5/Left_Eyebrow.c ****     }
 632:Generated_Source\PSoC5/Left_Eyebrow.c **** 
 633:Generated_Source\PSoC5/Left_Eyebrow.c **** 
 634:Generated_Source\PSoC5/Left_Eyebrow.c ****     /*******************************************************************************
 635:Generated_Source\PSoC5/Left_Eyebrow.c ****     * Function Name: Left_Eyebrow_ReadDeadTime
 636:Generated_Source\PSoC5/Left_Eyebrow.c ****     ********************************************************************************
 637:Generated_Source\PSoC5/Left_Eyebrow.c ****     *
 638:Generated_Source\PSoC5/Left_Eyebrow.c ****     * Summary:
 639:Generated_Source\PSoC5/Left_Eyebrow.c ****     *  This function reads the dead-band counts from the corresponding register
 640:Generated_Source\PSoC5/Left_Eyebrow.c ****     *
 641:Generated_Source\PSoC5/Left_Eyebrow.c ****     * Parameters:
 642:Generated_Source\PSoC5/Left_Eyebrow.c ****     *  None
 643:Generated_Source\PSoC5/Left_Eyebrow.c ****     *
 644:Generated_Source\PSoC5/Left_Eyebrow.c ****     * Return:
 645:Generated_Source\PSoC5/Left_Eyebrow.c ****     *  Dead Band Counts
 646:Generated_Source\PSoC5/Left_Eyebrow.c ****     *
 647:Generated_Source\PSoC5/Left_Eyebrow.c ****     *******************************************************************************/
 648:Generated_Source\PSoC5/Left_Eyebrow.c ****     uint8 Left_Eyebrow_ReadDeadTime(void) 
 649:Generated_Source\PSoC5/Left_Eyebrow.c ****     {
 650:Generated_Source\PSoC5/Left_Eyebrow.c ****         /* If using the Dead Band 1-255 mode then just read the register */
 651:Generated_Source\PSoC5/Left_Eyebrow.c ****         #if(!Left_Eyebrow_DeadBand2_4)
 652:Generated_Source\PSoC5/Left_Eyebrow.c ****             return (CY_GET_REG8(Left_Eyebrow_DEADBAND_COUNT_PTR));
 653:Generated_Source\PSoC5/Left_Eyebrow.c ****         #else
 654:Generated_Source\PSoC5/Left_Eyebrow.c **** 
 655:Generated_Source\PSoC5/Left_Eyebrow.c ****             /* Otherwise the data has to be masked and offset */
 656:Generated_Source\PSoC5/Left_Eyebrow.c ****             #if(Left_Eyebrow_DEADBAND_COUNT_SHIFT)
 657:Generated_Source\PSoC5/Left_Eyebrow.c ****                 return ((uint8)(((uint8)(Left_Eyebrow_DEADBAND_COUNT & Left_Eyebrow_DEADBAND_COUNT_
ARM GAS  C:\Users\vivek\AppData\Local\Temp\cc6zFIJh.s 			page 15


 658:Generated_Source\PSoC5/Left_Eyebrow.c ****                                                                            Left_Eyebrow_DEADBAND_CO
 659:Generated_Source\PSoC5/Left_Eyebrow.c ****             #else
 660:Generated_Source\PSoC5/Left_Eyebrow.c ****                 return (Left_Eyebrow_DEADBAND_COUNT & Left_Eyebrow_DEADBAND_COUNT_MASK);
 661:Generated_Source\PSoC5/Left_Eyebrow.c ****             #endif /* (Left_Eyebrow_DEADBAND_COUNT_SHIFT) */
 662:Generated_Source\PSoC5/Left_Eyebrow.c ****         #endif /* (!Left_Eyebrow_DeadBand2_4) */
 663:Generated_Source\PSoC5/Left_Eyebrow.c ****     }
 664:Generated_Source\PSoC5/Left_Eyebrow.c **** #endif /* DeadBandUsed */
 665:Generated_Source\PSoC5/Left_Eyebrow.c **** 
 666:Generated_Source\PSoC5/Left_Eyebrow.c **** #if (Left_Eyebrow_UseStatus || Left_Eyebrow_UsingFixedFunction)
 667:Generated_Source\PSoC5/Left_Eyebrow.c **** 
 668:Generated_Source\PSoC5/Left_Eyebrow.c **** 
 669:Generated_Source\PSoC5/Left_Eyebrow.c ****     /*******************************************************************************
 670:Generated_Source\PSoC5/Left_Eyebrow.c ****     * Function Name: Left_Eyebrow_SetInterruptMode
 671:Generated_Source\PSoC5/Left_Eyebrow.c ****     ********************************************************************************
 672:Generated_Source\PSoC5/Left_Eyebrow.c ****     *
 673:Generated_Source\PSoC5/Left_Eyebrow.c ****     * Summary:
 674:Generated_Source\PSoC5/Left_Eyebrow.c ****     *  This function configures the interrupts mask control of theinterrupt
 675:Generated_Source\PSoC5/Left_Eyebrow.c ****     *  source status register.
 676:Generated_Source\PSoC5/Left_Eyebrow.c ****     *
 677:Generated_Source\PSoC5/Left_Eyebrow.c ****     * Parameters:
 678:Generated_Source\PSoC5/Left_Eyebrow.c ****     *  uint8 interruptMode: Bit field containing the interrupt sources enabled
 679:Generated_Source\PSoC5/Left_Eyebrow.c ****     *
 680:Generated_Source\PSoC5/Left_Eyebrow.c ****     * Return:
 681:Generated_Source\PSoC5/Left_Eyebrow.c ****     *  None
 682:Generated_Source\PSoC5/Left_Eyebrow.c ****     *
 683:Generated_Source\PSoC5/Left_Eyebrow.c ****     *******************************************************************************/
 684:Generated_Source\PSoC5/Left_Eyebrow.c ****     void Left_Eyebrow_SetInterruptMode(uint8 interruptMode) 
 685:Generated_Source\PSoC5/Left_Eyebrow.c ****     {
 686:Generated_Source\PSoC5/Left_Eyebrow.c ****         CY_SET_REG8(Left_Eyebrow_STATUS_MASK_PTR, interruptMode);
 687:Generated_Source\PSoC5/Left_Eyebrow.c ****     }
 688:Generated_Source\PSoC5/Left_Eyebrow.c **** 
 689:Generated_Source\PSoC5/Left_Eyebrow.c **** 
 690:Generated_Source\PSoC5/Left_Eyebrow.c ****     /*******************************************************************************
 691:Generated_Source\PSoC5/Left_Eyebrow.c ****     * Function Name: Left_Eyebrow_ReadStatusRegister
 692:Generated_Source\PSoC5/Left_Eyebrow.c ****     ********************************************************************************
 693:Generated_Source\PSoC5/Left_Eyebrow.c ****     *
 694:Generated_Source\PSoC5/Left_Eyebrow.c ****     * Summary:
 695:Generated_Source\PSoC5/Left_Eyebrow.c ****     *  This function returns the current state of the status register.
 696:Generated_Source\PSoC5/Left_Eyebrow.c ****     *
 697:Generated_Source\PSoC5/Left_Eyebrow.c ****     * Parameters:
 698:Generated_Source\PSoC5/Left_Eyebrow.c ****     *  None
 699:Generated_Source\PSoC5/Left_Eyebrow.c ****     *
 700:Generated_Source\PSoC5/Left_Eyebrow.c ****     * Return:
 701:Generated_Source\PSoC5/Left_Eyebrow.c ****     *  uint8 : Current status register value. The status register bits are:
 702:Generated_Source\PSoC5/Left_Eyebrow.c ****     *  [7:6] : Unused(0)
 703:Generated_Source\PSoC5/Left_Eyebrow.c ****     *  [5]   : Kill event output
 704:Generated_Source\PSoC5/Left_Eyebrow.c ****     *  [4]   : FIFO not empty
 705:Generated_Source\PSoC5/Left_Eyebrow.c ****     *  [3]   : FIFO full
 706:Generated_Source\PSoC5/Left_Eyebrow.c ****     *  [2]   : Terminal count
 707:Generated_Source\PSoC5/Left_Eyebrow.c ****     *  [1]   : Compare output 2
 708:Generated_Source\PSoC5/Left_Eyebrow.c ****     *  [0]   : Compare output 1
 709:Generated_Source\PSoC5/Left_Eyebrow.c ****     *
 710:Generated_Source\PSoC5/Left_Eyebrow.c ****     *******************************************************************************/
 711:Generated_Source\PSoC5/Left_Eyebrow.c ****     uint8 Left_Eyebrow_ReadStatusRegister(void) 
 712:Generated_Source\PSoC5/Left_Eyebrow.c ****     {
 713:Generated_Source\PSoC5/Left_Eyebrow.c ****         return (CY_GET_REG8(Left_Eyebrow_STATUS_PTR));
 142              		.loc 1 713 0
ARM GAS  C:\Users\vivek\AppData\Local\Temp\cc6zFIJh.s 			page 16


 143 0000 034A     		ldr	r2, .L18
 144              	.LBE17:
 145              	.LBE16:
 146              	.LBB19:
 147              	.LBB20:
 714:Generated_Source\PSoC5/Left_Eyebrow.c ****     }
 715:Generated_Source\PSoC5/Left_Eyebrow.c **** 
 716:Generated_Source\PSoC5/Left_Eyebrow.c **** #endif /* (Left_Eyebrow_UseStatus || Left_Eyebrow_UsingFixedFunction) */
 717:Generated_Source\PSoC5/Left_Eyebrow.c **** 
 718:Generated_Source\PSoC5/Left_Eyebrow.c **** 
 719:Generated_Source\PSoC5/Left_Eyebrow.c **** #if (Left_Eyebrow_UseControl)
 720:Generated_Source\PSoC5/Left_Eyebrow.c **** 
 721:Generated_Source\PSoC5/Left_Eyebrow.c **** 
 722:Generated_Source\PSoC5/Left_Eyebrow.c ****     /*******************************************************************************
 723:Generated_Source\PSoC5/Left_Eyebrow.c ****     * Function Name: Left_Eyebrow_ReadControlRegister
 724:Generated_Source\PSoC5/Left_Eyebrow.c ****     ********************************************************************************
 725:Generated_Source\PSoC5/Left_Eyebrow.c ****     *
 726:Generated_Source\PSoC5/Left_Eyebrow.c ****     * Summary:
 727:Generated_Source\PSoC5/Left_Eyebrow.c ****     *  Returns the current state of the control register. This API is available
 728:Generated_Source\PSoC5/Left_Eyebrow.c ****     *  only if the control register is not removed.
 729:Generated_Source\PSoC5/Left_Eyebrow.c ****     *
 730:Generated_Source\PSoC5/Left_Eyebrow.c ****     * Parameters:
 731:Generated_Source\PSoC5/Left_Eyebrow.c ****     *  None
 732:Generated_Source\PSoC5/Left_Eyebrow.c ****     *
 733:Generated_Source\PSoC5/Left_Eyebrow.c ****     * Return:
 734:Generated_Source\PSoC5/Left_Eyebrow.c ****     *  uint8 : Current control register value
 735:Generated_Source\PSoC5/Left_Eyebrow.c ****     *
 736:Generated_Source\PSoC5/Left_Eyebrow.c ****     *******************************************************************************/
 737:Generated_Source\PSoC5/Left_Eyebrow.c ****     uint8 Left_Eyebrow_ReadControlRegister(void) 
 738:Generated_Source\PSoC5/Left_Eyebrow.c ****     {
 739:Generated_Source\PSoC5/Left_Eyebrow.c ****         uint8 result;
 740:Generated_Source\PSoC5/Left_Eyebrow.c **** 
 741:Generated_Source\PSoC5/Left_Eyebrow.c ****         result = CY_GET_REG8(Left_Eyebrow_CONTROL_PTR);
 742:Generated_Source\PSoC5/Left_Eyebrow.c ****         return (result);
 743:Generated_Source\PSoC5/Left_Eyebrow.c ****     }
 744:Generated_Source\PSoC5/Left_Eyebrow.c **** 
 745:Generated_Source\PSoC5/Left_Eyebrow.c **** 
 746:Generated_Source\PSoC5/Left_Eyebrow.c ****     /*******************************************************************************
 747:Generated_Source\PSoC5/Left_Eyebrow.c ****     * Function Name: Left_Eyebrow_WriteControlRegister
 748:Generated_Source\PSoC5/Left_Eyebrow.c ****     ********************************************************************************
 749:Generated_Source\PSoC5/Left_Eyebrow.c ****     *
 750:Generated_Source\PSoC5/Left_Eyebrow.c ****     * Summary:
 751:Generated_Source\PSoC5/Left_Eyebrow.c ****     *  Sets the bit field of the control register. This API is available only if
 752:Generated_Source\PSoC5/Left_Eyebrow.c ****     *  the control register is not removed.
 753:Generated_Source\PSoC5/Left_Eyebrow.c ****     *
 754:Generated_Source\PSoC5/Left_Eyebrow.c ****     * Parameters:
 755:Generated_Source\PSoC5/Left_Eyebrow.c ****     *  uint8 control: Control register bit field, The status register bits are:
 756:Generated_Source\PSoC5/Left_Eyebrow.c ****     *  [7]   : PWM Enable
 757:Generated_Source\PSoC5/Left_Eyebrow.c ****     *  [6]   : Reset
 758:Generated_Source\PSoC5/Left_Eyebrow.c ****     *  [5:3] : Compare Mode2
 759:Generated_Source\PSoC5/Left_Eyebrow.c ****     *  [2:0] : Compare Mode2
 760:Generated_Source\PSoC5/Left_Eyebrow.c ****     *
 761:Generated_Source\PSoC5/Left_Eyebrow.c ****     * Return:
 762:Generated_Source\PSoC5/Left_Eyebrow.c ****     *  None
 763:Generated_Source\PSoC5/Left_Eyebrow.c ****     *
 764:Generated_Source\PSoC5/Left_Eyebrow.c ****     *******************************************************************************/
 765:Generated_Source\PSoC5/Left_Eyebrow.c ****     void Left_Eyebrow_WriteControlRegister(uint8 control) 
ARM GAS  C:\Users\vivek\AppData\Local\Temp\cc6zFIJh.s 			page 17


 766:Generated_Source\PSoC5/Left_Eyebrow.c ****     {
 767:Generated_Source\PSoC5/Left_Eyebrow.c ****         CY_SET_REG8(Left_Eyebrow_CONTROL_PTR, control);
 768:Generated_Source\PSoC5/Left_Eyebrow.c ****     }
 769:Generated_Source\PSoC5/Left_Eyebrow.c **** 
 770:Generated_Source\PSoC5/Left_Eyebrow.c **** #endif /* (Left_Eyebrow_UseControl) */
 771:Generated_Source\PSoC5/Left_Eyebrow.c **** 
 772:Generated_Source\PSoC5/Left_Eyebrow.c **** 
 773:Generated_Source\PSoC5/Left_Eyebrow.c **** #if (!Left_Eyebrow_UsingFixedFunction)
 774:Generated_Source\PSoC5/Left_Eyebrow.c **** 
 775:Generated_Source\PSoC5/Left_Eyebrow.c **** 
 776:Generated_Source\PSoC5/Left_Eyebrow.c ****     /*******************************************************************************
 777:Generated_Source\PSoC5/Left_Eyebrow.c ****     * Function Name: Left_Eyebrow_ReadCapture
 778:Generated_Source\PSoC5/Left_Eyebrow.c ****     ********************************************************************************
 779:Generated_Source\PSoC5/Left_Eyebrow.c ****     *
 780:Generated_Source\PSoC5/Left_Eyebrow.c ****     * Summary:
 781:Generated_Source\PSoC5/Left_Eyebrow.c ****     *  Reads the capture value from the capture FIFO.
 782:Generated_Source\PSoC5/Left_Eyebrow.c ****     *
 783:Generated_Source\PSoC5/Left_Eyebrow.c ****     * Parameters:
 784:Generated_Source\PSoC5/Left_Eyebrow.c ****     *  None
 785:Generated_Source\PSoC5/Left_Eyebrow.c ****     *
 786:Generated_Source\PSoC5/Left_Eyebrow.c ****     * Return:
 787:Generated_Source\PSoC5/Left_Eyebrow.c ****     *  uint8/uint16: The current capture value
 788:Generated_Source\PSoC5/Left_Eyebrow.c ****     *
 789:Generated_Source\PSoC5/Left_Eyebrow.c ****     *******************************************************************************/
 790:Generated_Source\PSoC5/Left_Eyebrow.c ****     uint16 Left_Eyebrow_ReadCapture(void) 
 791:Generated_Source\PSoC5/Left_Eyebrow.c ****     {
 792:Generated_Source\PSoC5/Left_Eyebrow.c ****         return (CY_GET_REG16(Left_Eyebrow_CAPTURE_LSB_PTR));
 148              		.loc 1 792 0
 149 0002 0449     		ldr	r1, .L18+4
 150              	.L14:
 151              	.LBE20:
 152              	.LBE19:
 153              	.LBB22:
 154              	.LBB18:
 713:Generated_Source\PSoC5/Left_Eyebrow.c ****     }
 155              		.loc 1 713 0
 156 0004 1378     		ldrb	r3, [r2]	@ zero_extendqisi2
 157              	.LBE18:
 158              	.LBE22:
 455:Generated_Source\PSoC5/Left_Eyebrow.c ****             while(0u != (Left_Eyebrow_ReadStatusRegister() & Left_Eyebrow_STATUS_FIFONEMPTY))
 159              		.loc 1 455 0
 160 0006 DB06     		lsls	r3, r3, #27
 161 0008 01D5     		bpl	.L17
 162              	.LBB23:
 163              	.LBB21:
 164              		.loc 1 792 0
 165 000a 0B88     		ldrh	r3, [r1]
 166 000c FAE7     		b	.L14
 167              	.L17:
 168              	.LBE21:
 169              	.LBE23:
 459:Generated_Source\PSoC5/Left_Eyebrow.c **** 
 170              		.loc 1 459 0
 171 000e 7047     		bx	lr
 172              	.L19:
 173              		.align	2
 174              	.L18:
ARM GAS  C:\Users\vivek\AppData\Local\Temp\cc6zFIJh.s 			page 18


 175 0010 63640040 		.word	1073767523
 176 0014 A4680040 		.word	1073768612
 177              		.cfi_endproc
 178              	.LFE6:
 179              		.size	Left_Eyebrow_ClearFIFO, .-Left_Eyebrow_ClearFIFO
 180              		.section	.text.Left_Eyebrow_Init,"ax",%progbits
 181              		.align	1
 182              		.global	Left_Eyebrow_Init
 183              		.thumb
 184              		.thumb_func
 185              		.type	Left_Eyebrow_Init, %function
 186              	Left_Eyebrow_Init:
 187              	.LFB1:
  85:Generated_Source\PSoC5/Left_Eyebrow.c ****     #if (Left_Eyebrow_UsingFixedFunction || Left_Eyebrow_UseControl)
 188              		.loc 1 85 0
 189              		.cfi_startproc
 190              		@ args = 0, pretend = 0, frame = 0
 191              		@ frame_needed = 0, uses_anonymous_args = 0
 192 0000 10B5     		push	{r4, lr}
 193              		.cfi_def_cfa_offset 8
 194              		.cfi_offset 4, -8
 195              		.cfi_offset 14, -4
 117:Generated_Source\PSoC5/Left_Eyebrow.c ****                 ((uint8)(~Left_Eyebrow_CTRL_CMPMODE1_MASK));
 196              		.loc 1 117 0
 197 0002 154A     		ldr	r2, .L21
 130:Generated_Source\PSoC5/Left_Eyebrow.c ****         #endif /* (Left_Eyebrow_Resolution == 8) */
 198              		.loc 1 130 0
 199 0004 154C     		ldr	r4, .L21+4
 117:Generated_Source\PSoC5/Left_Eyebrow.c ****                 ((uint8)(~Left_Eyebrow_CTRL_CMPMODE1_MASK));
 200              		.loc 1 117 0
 201 0006 1378     		ldrb	r3, [r2]	@ zero_extendqisi2
 202              	.LVL1:
 203              	.LBB24:
 204              	.LBB25:
 686:Generated_Source\PSoC5/Left_Eyebrow.c ****     }
 205              		.loc 1 686 0
 206 0008 1032     		adds	r2, r2, #16
 207              	.LBE25:
 208              	.LBE24:
 119:Generated_Source\PSoC5/Left_Eyebrow.c ****                                    Left_Eyebrow_DEFAULT_COMPARE1_MODE;
 209              		.loc 1 119 0
 210 000a 03F0C003 		and	r3, r3, #192
 211              	.LVL2:
 212 000e 43F00903 		orr	r3, r3, #9
 213 0012 02F8103C 		strb	r3, [r2, #-16]
 129:Generated_Source\PSoC5/Left_Eyebrow.c ****             Left_Eyebrow_AUX_CONTROLDP1 |= (Left_Eyebrow_AUX_CTRL_FIFO0_CLR);
 214              		.loc 1 129 0
 215 0016 D37B     		ldrb	r3, [r2, #15]	@ zero_extendqisi2
 216 0018 43F00103 		orr	r3, r3, #1
 217 001c D373     		strb	r3, [r2, #15]
 130:Generated_Source\PSoC5/Left_Eyebrow.c ****         #endif /* (Left_Eyebrow_Resolution == 8) */
 218              		.loc 1 130 0
 219 001e 2378     		ldrb	r3, [r4]	@ zero_extendqisi2
 220 0020 43F00103 		orr	r3, r3, #1
 221 0024 2370     		strb	r3, [r4]
 222              	.LVL3:
 223              	.LBB27:
ARM GAS  C:\Users\vivek\AppData\Local\Temp\cc6zFIJh.s 			page 19


 224              	.LBB28:
 406:Generated_Source\PSoC5/Left_Eyebrow.c ****     }
 225              		.loc 1 406 0
 226 0026 4EF66023 		movw	r3, #60000
 227 002a A2F88133 		strh	r3, [r2, #897]	@ movhi
 228              	.LVL4:
 229              	.LBE28:
 230              	.LBE27:
 231              	.LBB29:
 232              	.LBB30:
 487:Generated_Source\PSoC5/Left_Eyebrow.c ****     #endif /* (Left_Eyebrow_UsingFixedFunction) */
 233              		.loc 1 487 0
 234 002e A2F80134 		strh	r3, [r2, #1025]	@ movhi
 235              	.LVL5:
 236              	.LBE30:
 237              	.LBE29:
 238              	.LBB31:
 239              	.LBB32:
 561:Generated_Source\PSoC5/Left_Eyebrow.c ****         #endif /* (Left_Eyebrow_UsingFixedFunction) */
 240              		.loc 1 561 0
 241 0032 0023     		movs	r3, #0
 242 0034 A2F8C133 		strh	r3, [r2, #961]	@ movhi
 243              	.LVL6:
 244              	.LBE32:
 245              	.LBE31:
 246              	.LBB33:
 247              	.LBB34:
 590:Generated_Source\PSoC5/Left_Eyebrow.c ****         #endif /* (Left_Eyebrow_UsingFixedFunction) */
 248              		.loc 1 590 0
 249 0038 A2F8E133 		strh	r3, [r2, #993]	@ movhi
 250              	.LVL7:
 251              	.LBE34:
 252              	.LBE33:
 253              	.LBB35:
 254              	.LBB26:
 686:Generated_Source\PSoC5/Left_Eyebrow.c ****     }
 255              		.loc 1 686 0
 256 003c 1370     		strb	r3, [r2]
 257              	.LVL8:
 258              	.LBE26:
 259              	.LBE35:
 167:Generated_Source\PSoC5/Left_Eyebrow.c ****             /* Use the interrupt output of the status register for IRQ output */
 260              		.loc 1 167 0
 261 003e FFF7FEFF 		bl	CyEnterCriticalSection
 262              	.LVL9:
 169:Generated_Source\PSoC5/Left_Eyebrow.c **** 
 263              		.loc 1 169 0
 264 0042 2378     		ldrb	r3, [r4]	@ zero_extendqisi2
 265 0044 43F01003 		orr	r3, r3, #16
 266 0048 2370     		strb	r3, [r4]
 172:Generated_Source\PSoC5/Left_Eyebrow.c **** 
 267              		.loc 1 172 0
 268 004a FFF7FEFF 		bl	CyExitCriticalSection
 269              	.LVL10:
 179:Generated_Source\PSoC5/Left_Eyebrow.c **** 
 270              		.loc 1 179 0
 271 004e BDE81040 		pop	{r4, lr}
ARM GAS  C:\Users\vivek\AppData\Local\Temp\cc6zFIJh.s 			page 20


 272              		.cfi_restore 14
 273              		.cfi_restore 4
 274              		.cfi_def_cfa_offset 0
 176:Generated_Source\PSoC5/Left_Eyebrow.c ****         #endif /* (Left_Eyebrow_UseStatus) */
 275              		.loc 1 176 0
 276 0052 FFF7FEBF 		b	Left_Eyebrow_ClearFIFO
 277              	.LVL11:
 278              	.L22:
 279 0056 00BF     		.align	2
 280              	.L21:
 281 0058 73640040 		.word	1073767539
 282 005c 93640040 		.word	1073767571
 283              		.cfi_endproc
 284              	.LFE1:
 285              		.size	Left_Eyebrow_Init, .-Left_Eyebrow_Init
 286              		.section	.text.Left_Eyebrow_Start,"ax",%progbits
 287              		.align	1
 288              		.global	Left_Eyebrow_Start
 289              		.thumb
 290              		.thumb_func
 291              		.type	Left_Eyebrow_Start, %function
 292              	Left_Eyebrow_Start:
 293              	.LFB0:
  56:Generated_Source\PSoC5/Left_Eyebrow.c ****     /* If not Initialized then initialize all required hardware and software */
 294              		.loc 1 56 0
 295              		.cfi_startproc
 296              		@ args = 0, pretend = 0, frame = 0
 297              		@ frame_needed = 0, uses_anonymous_args = 0
 298 0000 10B5     		push	{r4, lr}
 299              		.cfi_def_cfa_offset 8
 300              		.cfi_offset 4, -8
 301              		.cfi_offset 14, -4
  58:Generated_Source\PSoC5/Left_Eyebrow.c ****     {
 302              		.loc 1 58 0
 303 0002 054C     		ldr	r4, .L25
 304 0004 2378     		ldrb	r3, [r4]	@ zero_extendqisi2
 305 0006 1BB9     		cbnz	r3, .L24
  60:Generated_Source\PSoC5/Left_Eyebrow.c ****         Left_Eyebrow_initVar = 1u;
 306              		.loc 1 60 0
 307 0008 FFF7FEFF 		bl	Left_Eyebrow_Init
 308              	.LVL12:
  61:Generated_Source\PSoC5/Left_Eyebrow.c ****     }
 309              		.loc 1 61 0
 310 000c 0123     		movs	r3, #1
 311 000e 2370     		strb	r3, [r4]
 312              	.L24:
  65:Generated_Source\PSoC5/Left_Eyebrow.c **** 
 313              		.loc 1 65 0
 314 0010 BDE81040 		pop	{r4, lr}
 315              		.cfi_restore 14
 316              		.cfi_restore 4
 317              		.cfi_def_cfa_offset 0
  63:Generated_Source\PSoC5/Left_Eyebrow.c **** 
 318              		.loc 1 63 0
 319 0014 FFF7FEBF 		b	Left_Eyebrow_Enable
 320              	.LVL13:
 321              	.L26:
ARM GAS  C:\Users\vivek\AppData\Local\Temp\cc6zFIJh.s 			page 21


 322              		.align	2
 323              	.L25:
 324 0018 00000000 		.word	.LANCHOR0
 325              		.cfi_endproc
 326              	.LFE0:
 327              		.size	Left_Eyebrow_Start, .-Left_Eyebrow_Start
 328              		.section	.text.Left_Eyebrow_WritePeriod,"ax",%progbits
 329              		.align	1
 330              		.global	Left_Eyebrow_WritePeriod
 331              		.thumb
 332              		.thumb_func
 333              		.type	Left_Eyebrow_WritePeriod, %function
 334              	Left_Eyebrow_WritePeriod:
 335              	.LFB7:
 483:Generated_Source\PSoC5/Left_Eyebrow.c ****     #if(Left_Eyebrow_UsingFixedFunction)
 336              		.loc 1 483 0
 337              		.cfi_startproc
 338              		@ args = 0, pretend = 0, frame = 0
 339              		@ frame_needed = 0, uses_anonymous_args = 0
 340              		@ link register save eliminated.
 341              	.LVL14:
 487:Generated_Source\PSoC5/Left_Eyebrow.c ****     #endif /* (Left_Eyebrow_UsingFixedFunction) */
 342              		.loc 1 487 0
 343 0000 014B     		ldr	r3, .L28
 344 0002 1880     		strh	r0, [r3]	@ movhi
 345 0004 7047     		bx	lr
 346              	.L29:
 347 0006 00BF     		.align	2
 348              	.L28:
 349 0008 84680040 		.word	1073768580
 350              		.cfi_endproc
 351              	.LFE7:
 352              		.size	Left_Eyebrow_WritePeriod, .-Left_Eyebrow_WritePeriod
 353              		.section	.text.Left_Eyebrow_WriteCompare1,"ax",%progbits
 354              		.align	1
 355              		.global	Left_Eyebrow_WriteCompare1
 356              		.thumb
 357              		.thumb_func
 358              		.type	Left_Eyebrow_WriteCompare1, %function
 359              	Left_Eyebrow_WriteCompare1:
 360              	.LFB8:
 557:Generated_Source\PSoC5/Left_Eyebrow.c ****         #if(Left_Eyebrow_UsingFixedFunction)
 361              		.loc 1 557 0
 362              		.cfi_startproc
 363              		@ args = 0, pretend = 0, frame = 0
 364              		@ frame_needed = 0, uses_anonymous_args = 0
 365              		@ link register save eliminated.
 366              	.LVL15:
 561:Generated_Source\PSoC5/Left_Eyebrow.c ****         #endif /* (Left_Eyebrow_UsingFixedFunction) */
 367              		.loc 1 561 0
 368 0000 014B     		ldr	r3, .L31
 369 0002 1880     		strh	r0, [r3]	@ movhi
 370 0004 7047     		bx	lr
 371              	.L32:
 372 0006 00BF     		.align	2
 373              	.L31:
 374 0008 44680040 		.word	1073768516
ARM GAS  C:\Users\vivek\AppData\Local\Temp\cc6zFIJh.s 			page 22


 375              		.cfi_endproc
 376              	.LFE8:
 377              		.size	Left_Eyebrow_WriteCompare1, .-Left_Eyebrow_WriteCompare1
 378              		.section	.text.Left_Eyebrow_WriteCompare2,"ax",%progbits
 379              		.align	1
 380              		.global	Left_Eyebrow_WriteCompare2
 381              		.thumb
 382              		.thumb_func
 383              		.type	Left_Eyebrow_WriteCompare2, %function
 384              	Left_Eyebrow_WriteCompare2:
 385              	.LFB9:
 586:Generated_Source\PSoC5/Left_Eyebrow.c ****         #if(Left_Eyebrow_UsingFixedFunction)
 386              		.loc 1 586 0
 387              		.cfi_startproc
 388              		@ args = 0, pretend = 0, frame = 0
 389              		@ frame_needed = 0, uses_anonymous_args = 0
 390              		@ link register save eliminated.
 391              	.LVL16:
 590:Generated_Source\PSoC5/Left_Eyebrow.c ****         #endif /* (Left_Eyebrow_UsingFixedFunction) */
 392              		.loc 1 590 0
 393 0000 014B     		ldr	r3, .L34
 394 0002 1880     		strh	r0, [r3]	@ movhi
 395 0004 7047     		bx	lr
 396              	.L35:
 397 0006 00BF     		.align	2
 398              	.L34:
 399 0008 64680040 		.word	1073768548
 400              		.cfi_endproc
 401              	.LFE9:
 402              		.size	Left_Eyebrow_WriteCompare2, .-Left_Eyebrow_WriteCompare2
 403              		.section	.text.Left_Eyebrow_SetInterruptMode,"ax",%progbits
 404              		.align	1
 405              		.global	Left_Eyebrow_SetInterruptMode
 406              		.thumb
 407              		.thumb_func
 408              		.type	Left_Eyebrow_SetInterruptMode, %function
 409              	Left_Eyebrow_SetInterruptMode:
 410              	.LFB10:
 685:Generated_Source\PSoC5/Left_Eyebrow.c ****         CY_SET_REG8(Left_Eyebrow_STATUS_MASK_PTR, interruptMode);
 411              		.loc 1 685 0
 412              		.cfi_startproc
 413              		@ args = 0, pretend = 0, frame = 0
 414              		@ frame_needed = 0, uses_anonymous_args = 0
 415              		@ link register save eliminated.
 416              	.LVL17:
 686:Generated_Source\PSoC5/Left_Eyebrow.c ****     }
 417              		.loc 1 686 0
 418 0000 014B     		ldr	r3, .L37
 419 0002 1870     		strb	r0, [r3]
 420 0004 7047     		bx	lr
 421              	.L38:
 422 0006 00BF     		.align	2
 423              	.L37:
 424 0008 83640040 		.word	1073767555
 425              		.cfi_endproc
 426              	.LFE10:
 427              		.size	Left_Eyebrow_SetInterruptMode, .-Left_Eyebrow_SetInterruptMode
ARM GAS  C:\Users\vivek\AppData\Local\Temp\cc6zFIJh.s 			page 23


 428              		.section	.text.Left_Eyebrow_ReadStatusRegister,"ax",%progbits
 429              		.align	1
 430              		.global	Left_Eyebrow_ReadStatusRegister
 431              		.thumb
 432              		.thumb_func
 433              		.type	Left_Eyebrow_ReadStatusRegister, %function
 434              	Left_Eyebrow_ReadStatusRegister:
 435              	.LFB11:
 712:Generated_Source\PSoC5/Left_Eyebrow.c ****         return (CY_GET_REG8(Left_Eyebrow_STATUS_PTR));
 436              		.loc 1 712 0
 437              		.cfi_startproc
 438              		@ args = 0, pretend = 0, frame = 0
 439              		@ frame_needed = 0, uses_anonymous_args = 0
 440              		@ link register save eliminated.
 713:Generated_Source\PSoC5/Left_Eyebrow.c ****     }
 441              		.loc 1 713 0
 442 0000 014B     		ldr	r3, .L40
 443 0002 1878     		ldrb	r0, [r3]	@ zero_extendqisi2
 714:Generated_Source\PSoC5/Left_Eyebrow.c **** 
 444              		.loc 1 714 0
 445 0004 7047     		bx	lr
 446              	.L41:
 447 0006 00BF     		.align	2
 448              	.L40:
 449 0008 63640040 		.word	1073767523
 450              		.cfi_endproc
 451              	.LFE11:
 452              		.size	Left_Eyebrow_ReadStatusRegister, .-Left_Eyebrow_ReadStatusRegister
 453              		.section	.text.Left_Eyebrow_ReadControlRegister,"ax",%progbits
 454              		.align	1
 455              		.global	Left_Eyebrow_ReadControlRegister
 456              		.thumb
 457              		.thumb_func
 458              		.type	Left_Eyebrow_ReadControlRegister, %function
 459              	Left_Eyebrow_ReadControlRegister:
 460              	.LFB12:
 738:Generated_Source\PSoC5/Left_Eyebrow.c ****         uint8 result;
 461              		.loc 1 738 0
 462              		.cfi_startproc
 463              		@ args = 0, pretend = 0, frame = 0
 464              		@ frame_needed = 0, uses_anonymous_args = 0
 465              		@ link register save eliminated.
 741:Generated_Source\PSoC5/Left_Eyebrow.c ****         return (result);
 466              		.loc 1 741 0
 467 0000 014B     		ldr	r3, .L43
 468 0002 1878     		ldrb	r0, [r3]	@ zero_extendqisi2
 469              	.LVL18:
 743:Generated_Source\PSoC5/Left_Eyebrow.c **** 
 470              		.loc 1 743 0
 471 0004 7047     		bx	lr
 472              	.L44:
 473 0006 00BF     		.align	2
 474              	.L43:
 475 0008 73640040 		.word	1073767539
 476              		.cfi_endproc
 477              	.LFE12:
 478              		.size	Left_Eyebrow_ReadControlRegister, .-Left_Eyebrow_ReadControlRegister
ARM GAS  C:\Users\vivek\AppData\Local\Temp\cc6zFIJh.s 			page 24


 479              		.section	.text.Left_Eyebrow_WriteControlRegister,"ax",%progbits
 480              		.align	1
 481              		.global	Left_Eyebrow_WriteControlRegister
 482              		.thumb
 483              		.thumb_func
 484              		.type	Left_Eyebrow_WriteControlRegister, %function
 485              	Left_Eyebrow_WriteControlRegister:
 486              	.LFB13:
 766:Generated_Source\PSoC5/Left_Eyebrow.c ****         CY_SET_REG8(Left_Eyebrow_CONTROL_PTR, control);
 487              		.loc 1 766 0
 488              		.cfi_startproc
 489              		@ args = 0, pretend = 0, frame = 0
 490              		@ frame_needed = 0, uses_anonymous_args = 0
 491              		@ link register save eliminated.
 492              	.LVL19:
 767:Generated_Source\PSoC5/Left_Eyebrow.c ****     }
 493              		.loc 1 767 0
 494 0000 014B     		ldr	r3, .L46
 495 0002 1870     		strb	r0, [r3]
 496 0004 7047     		bx	lr
 497              	.L47:
 498 0006 00BF     		.align	2
 499              	.L46:
 500 0008 73640040 		.word	1073767539
 501              		.cfi_endproc
 502              	.LFE13:
 503              		.size	Left_Eyebrow_WriteControlRegister, .-Left_Eyebrow_WriteControlRegister
 504              		.section	.text.Left_Eyebrow_ReadCapture,"ax",%progbits
 505              		.align	1
 506              		.global	Left_Eyebrow_ReadCapture
 507              		.thumb
 508              		.thumb_func
 509              		.type	Left_Eyebrow_ReadCapture, %function
 510              	Left_Eyebrow_ReadCapture:
 511              	.LFB14:
 791:Generated_Source\PSoC5/Left_Eyebrow.c ****         return (CY_GET_REG16(Left_Eyebrow_CAPTURE_LSB_PTR));
 512              		.loc 1 791 0
 513              		.cfi_startproc
 514              		@ args = 0, pretend = 0, frame = 0
 515              		@ frame_needed = 0, uses_anonymous_args = 0
 516              		@ link register save eliminated.
 517              		.loc 1 792 0
 518 0000 014B     		ldr	r3, .L49
 519 0002 1888     		ldrh	r0, [r3]
 793:Generated_Source\PSoC5/Left_Eyebrow.c ****     }
 520              		.loc 1 793 0
 521 0004 80B2     		uxth	r0, r0
 522 0006 7047     		bx	lr
 523              	.L50:
 524              		.align	2
 525              	.L49:
 526 0008 A4680040 		.word	1073768612
 527              		.cfi_endproc
 528              	.LFE14:
 529              		.size	Left_Eyebrow_ReadCapture, .-Left_Eyebrow_ReadCapture
 530              		.section	.text.Left_Eyebrow_ReadCompare1,"ax",%progbits
 531              		.align	1
ARM GAS  C:\Users\vivek\AppData\Local\Temp\cc6zFIJh.s 			page 25


 532              		.global	Left_Eyebrow_ReadCompare1
 533              		.thumb
 534              		.thumb_func
 535              		.type	Left_Eyebrow_ReadCompare1, %function
 536              	Left_Eyebrow_ReadCompare1:
 537              	.LFB15:
 794:Generated_Source\PSoC5/Left_Eyebrow.c **** 
 795:Generated_Source\PSoC5/Left_Eyebrow.c **** #endif /* (!Left_Eyebrow_UsingFixedFunction) */
 796:Generated_Source\PSoC5/Left_Eyebrow.c **** 
 797:Generated_Source\PSoC5/Left_Eyebrow.c **** 
 798:Generated_Source\PSoC5/Left_Eyebrow.c **** #if (Left_Eyebrow_UseOneCompareMode)
 799:Generated_Source\PSoC5/Left_Eyebrow.c **** 
 800:Generated_Source\PSoC5/Left_Eyebrow.c **** 
 801:Generated_Source\PSoC5/Left_Eyebrow.c ****     /*******************************************************************************
 802:Generated_Source\PSoC5/Left_Eyebrow.c ****     * Function Name: Left_Eyebrow_ReadCompare
 803:Generated_Source\PSoC5/Left_Eyebrow.c ****     ********************************************************************************
 804:Generated_Source\PSoC5/Left_Eyebrow.c ****     *
 805:Generated_Source\PSoC5/Left_Eyebrow.c ****     * Summary:
 806:Generated_Source\PSoC5/Left_Eyebrow.c ****     *  Reads the compare value for the compare output when the PWM Mode parameter is
 807:Generated_Source\PSoC5/Left_Eyebrow.c ****     *  set to Dither mode, Center Aligned mode, or One Output mode.
 808:Generated_Source\PSoC5/Left_Eyebrow.c ****     *
 809:Generated_Source\PSoC5/Left_Eyebrow.c ****     * Parameters:
 810:Generated_Source\PSoC5/Left_Eyebrow.c ****     *  None
 811:Generated_Source\PSoC5/Left_Eyebrow.c ****     *
 812:Generated_Source\PSoC5/Left_Eyebrow.c ****     * Return:
 813:Generated_Source\PSoC5/Left_Eyebrow.c ****     *  uint8/uint16: Current compare value
 814:Generated_Source\PSoC5/Left_Eyebrow.c ****     *
 815:Generated_Source\PSoC5/Left_Eyebrow.c ****     *******************************************************************************/
 816:Generated_Source\PSoC5/Left_Eyebrow.c ****     uint16 Left_Eyebrow_ReadCompare(void) 
 817:Generated_Source\PSoC5/Left_Eyebrow.c ****     {
 818:Generated_Source\PSoC5/Left_Eyebrow.c ****         #if(Left_Eyebrow_UsingFixedFunction)
 819:Generated_Source\PSoC5/Left_Eyebrow.c ****             return ((uint16)CY_GET_REG16(Left_Eyebrow_COMPARE1_LSB_PTR));
 820:Generated_Source\PSoC5/Left_Eyebrow.c ****         #else
 821:Generated_Source\PSoC5/Left_Eyebrow.c ****             return (CY_GET_REG16(Left_Eyebrow_COMPARE1_LSB_PTR));
 822:Generated_Source\PSoC5/Left_Eyebrow.c ****         #endif /* (Left_Eyebrow_UsingFixedFunction) */
 823:Generated_Source\PSoC5/Left_Eyebrow.c ****     }
 824:Generated_Source\PSoC5/Left_Eyebrow.c **** 
 825:Generated_Source\PSoC5/Left_Eyebrow.c **** #else
 826:Generated_Source\PSoC5/Left_Eyebrow.c **** 
 827:Generated_Source\PSoC5/Left_Eyebrow.c **** 
 828:Generated_Source\PSoC5/Left_Eyebrow.c ****     /*******************************************************************************
 829:Generated_Source\PSoC5/Left_Eyebrow.c ****     * Function Name: Left_Eyebrow_ReadCompare1
 830:Generated_Source\PSoC5/Left_Eyebrow.c ****     ********************************************************************************
 831:Generated_Source\PSoC5/Left_Eyebrow.c ****     *
 832:Generated_Source\PSoC5/Left_Eyebrow.c ****     * Summary:
 833:Generated_Source\PSoC5/Left_Eyebrow.c ****     *  Reads the compare value for the compare1 output.
 834:Generated_Source\PSoC5/Left_Eyebrow.c ****     *
 835:Generated_Source\PSoC5/Left_Eyebrow.c ****     * Parameters:
 836:Generated_Source\PSoC5/Left_Eyebrow.c ****     *  None
 837:Generated_Source\PSoC5/Left_Eyebrow.c ****     *
 838:Generated_Source\PSoC5/Left_Eyebrow.c ****     * Return:
 839:Generated_Source\PSoC5/Left_Eyebrow.c ****     *  uint8/uint16: Current compare value.
 840:Generated_Source\PSoC5/Left_Eyebrow.c ****     *
 841:Generated_Source\PSoC5/Left_Eyebrow.c ****     *******************************************************************************/
 842:Generated_Source\PSoC5/Left_Eyebrow.c ****     uint16 Left_Eyebrow_ReadCompare1(void) 
 843:Generated_Source\PSoC5/Left_Eyebrow.c ****     {
 538              		.loc 1 843 0
ARM GAS  C:\Users\vivek\AppData\Local\Temp\cc6zFIJh.s 			page 26


 539              		.cfi_startproc
 540              		@ args = 0, pretend = 0, frame = 0
 541              		@ frame_needed = 0, uses_anonymous_args = 0
 542              		@ link register save eliminated.
 844:Generated_Source\PSoC5/Left_Eyebrow.c ****         return (CY_GET_REG16(Left_Eyebrow_COMPARE1_LSB_PTR));
 543              		.loc 1 844 0
 544 0000 014B     		ldr	r3, .L52
 545 0002 1888     		ldrh	r0, [r3]
 845:Generated_Source\PSoC5/Left_Eyebrow.c ****     }
 546              		.loc 1 845 0
 547 0004 80B2     		uxth	r0, r0
 548 0006 7047     		bx	lr
 549              	.L53:
 550              		.align	2
 551              	.L52:
 552 0008 44680040 		.word	1073768516
 553              		.cfi_endproc
 554              	.LFE15:
 555              		.size	Left_Eyebrow_ReadCompare1, .-Left_Eyebrow_ReadCompare1
 556              		.section	.text.Left_Eyebrow_ReadCompare2,"ax",%progbits
 557              		.align	1
 558              		.global	Left_Eyebrow_ReadCompare2
 559              		.thumb
 560              		.thumb_func
 561              		.type	Left_Eyebrow_ReadCompare2, %function
 562              	Left_Eyebrow_ReadCompare2:
 563              	.LFB16:
 846:Generated_Source\PSoC5/Left_Eyebrow.c **** 
 847:Generated_Source\PSoC5/Left_Eyebrow.c **** 
 848:Generated_Source\PSoC5/Left_Eyebrow.c ****     /*******************************************************************************
 849:Generated_Source\PSoC5/Left_Eyebrow.c ****     * Function Name: Left_Eyebrow_ReadCompare2
 850:Generated_Source\PSoC5/Left_Eyebrow.c ****     ********************************************************************************
 851:Generated_Source\PSoC5/Left_Eyebrow.c ****     *
 852:Generated_Source\PSoC5/Left_Eyebrow.c ****     * Summary:
 853:Generated_Source\PSoC5/Left_Eyebrow.c ****     *  Reads the compare value for the compare2 output.
 854:Generated_Source\PSoC5/Left_Eyebrow.c ****     *
 855:Generated_Source\PSoC5/Left_Eyebrow.c ****     * Parameters:
 856:Generated_Source\PSoC5/Left_Eyebrow.c ****     *  None
 857:Generated_Source\PSoC5/Left_Eyebrow.c ****     *
 858:Generated_Source\PSoC5/Left_Eyebrow.c ****     * Return:
 859:Generated_Source\PSoC5/Left_Eyebrow.c ****     *  uint8/uint16: Current compare value.
 860:Generated_Source\PSoC5/Left_Eyebrow.c ****     *
 861:Generated_Source\PSoC5/Left_Eyebrow.c ****     *******************************************************************************/
 862:Generated_Source\PSoC5/Left_Eyebrow.c ****     uint16 Left_Eyebrow_ReadCompare2(void) 
 863:Generated_Source\PSoC5/Left_Eyebrow.c ****     {
 564              		.loc 1 863 0
 565              		.cfi_startproc
 566              		@ args = 0, pretend = 0, frame = 0
 567              		@ frame_needed = 0, uses_anonymous_args = 0
 568              		@ link register save eliminated.
 864:Generated_Source\PSoC5/Left_Eyebrow.c ****         return (CY_GET_REG16(Left_Eyebrow_COMPARE2_LSB_PTR));
 569              		.loc 1 864 0
 570 0000 014B     		ldr	r3, .L55
 571 0002 1888     		ldrh	r0, [r3]
 865:Generated_Source\PSoC5/Left_Eyebrow.c ****     }
 572              		.loc 1 865 0
 573 0004 80B2     		uxth	r0, r0
ARM GAS  C:\Users\vivek\AppData\Local\Temp\cc6zFIJh.s 			page 27


 574 0006 7047     		bx	lr
 575              	.L56:
 576              		.align	2
 577              	.L55:
 578 0008 64680040 		.word	1073768548
 579              		.cfi_endproc
 580              	.LFE16:
 581              		.size	Left_Eyebrow_ReadCompare2, .-Left_Eyebrow_ReadCompare2
 582              		.section	.text.Left_Eyebrow_ReadPeriod,"ax",%progbits
 583              		.align	1
 584              		.global	Left_Eyebrow_ReadPeriod
 585              		.thumb
 586              		.thumb_func
 587              		.type	Left_Eyebrow_ReadPeriod, %function
 588              	Left_Eyebrow_ReadPeriod:
 589              	.LFB17:
 866:Generated_Source\PSoC5/Left_Eyebrow.c **** 
 867:Generated_Source\PSoC5/Left_Eyebrow.c **** #endif /* (Left_Eyebrow_UseOneCompareMode) */
 868:Generated_Source\PSoC5/Left_Eyebrow.c **** 
 869:Generated_Source\PSoC5/Left_Eyebrow.c **** 
 870:Generated_Source\PSoC5/Left_Eyebrow.c **** /*******************************************************************************
 871:Generated_Source\PSoC5/Left_Eyebrow.c **** * Function Name: Left_Eyebrow_ReadPeriod
 872:Generated_Source\PSoC5/Left_Eyebrow.c **** ********************************************************************************
 873:Generated_Source\PSoC5/Left_Eyebrow.c **** *
 874:Generated_Source\PSoC5/Left_Eyebrow.c **** * Summary:
 875:Generated_Source\PSoC5/Left_Eyebrow.c **** *  Reads the period value used by the PWM hardware.
 876:Generated_Source\PSoC5/Left_Eyebrow.c **** *
 877:Generated_Source\PSoC5/Left_Eyebrow.c **** * Parameters:
 878:Generated_Source\PSoC5/Left_Eyebrow.c **** *  None
 879:Generated_Source\PSoC5/Left_Eyebrow.c **** *
 880:Generated_Source\PSoC5/Left_Eyebrow.c **** * Return:
 881:Generated_Source\PSoC5/Left_Eyebrow.c **** *  uint8/16: Period value
 882:Generated_Source\PSoC5/Left_Eyebrow.c **** *
 883:Generated_Source\PSoC5/Left_Eyebrow.c **** *******************************************************************************/
 884:Generated_Source\PSoC5/Left_Eyebrow.c **** uint16 Left_Eyebrow_ReadPeriod(void) 
 885:Generated_Source\PSoC5/Left_Eyebrow.c **** {
 590              		.loc 1 885 0
 591              		.cfi_startproc
 592              		@ args = 0, pretend = 0, frame = 0
 593              		@ frame_needed = 0, uses_anonymous_args = 0
 594              		@ link register save eliminated.
 886:Generated_Source\PSoC5/Left_Eyebrow.c ****     #if(Left_Eyebrow_UsingFixedFunction)
 887:Generated_Source\PSoC5/Left_Eyebrow.c ****         return ((uint16)CY_GET_REG16(Left_Eyebrow_PERIOD_LSB_PTR));
 888:Generated_Source\PSoC5/Left_Eyebrow.c ****     #else
 889:Generated_Source\PSoC5/Left_Eyebrow.c ****         return (CY_GET_REG16(Left_Eyebrow_PERIOD_LSB_PTR));
 595              		.loc 1 889 0
 596 0000 014B     		ldr	r3, .L58
 597 0002 1888     		ldrh	r0, [r3]
 890:Generated_Source\PSoC5/Left_Eyebrow.c ****     #endif /* (Left_Eyebrow_UsingFixedFunction) */
 891:Generated_Source\PSoC5/Left_Eyebrow.c **** }
 598              		.loc 1 891 0
 599 0004 80B2     		uxth	r0, r0
 600 0006 7047     		bx	lr
 601              	.L59:
 602              		.align	2
 603              	.L58:
 604 0008 84680040 		.word	1073768580
ARM GAS  C:\Users\vivek\AppData\Local\Temp\cc6zFIJh.s 			page 28


 605              		.cfi_endproc
 606              	.LFE17:
 607              		.size	Left_Eyebrow_ReadPeriod, .-Left_Eyebrow_ReadPeriod
 608              		.global	Left_Eyebrow_initVar
 609              		.bss
 610              		.set	.LANCHOR0,. + 0
 611              		.type	Left_Eyebrow_initVar, %object
 612              		.size	Left_Eyebrow_initVar, 1
 613              	Left_Eyebrow_initVar:
 614 0000 00       		.space	1
 615              		.text
 616              	.Letext0:
 617              		.file 2 "Generated_Source\\PSoC5\\cytypes.h"
 618              		.file 3 "Generated_Source\\PSoC5\\CyLib.h"